
========================================================================

** ELF Header Information

    File Name: .\RTC\RTC.axf

    Machine class: ELFCLASS32 (32-bit)
    Data encoding: ELFDATA2LSB (Little endian)
    Header version: EV_CURRENT (Current version)
    Operating System ABI: none
    ABI Version: 0
    File Type: ET_EXEC (Executable) (2)
    Machine: EM_ARM (ARM)

    Image Entry point: 0x08000189
    Flags: EF_ARM_HASENTRY (0x05000002)

    ARM ELF revision: 5 (ABI version 2)

    Conforms to Base float procedure-call standard

    Built with
    Component: ARM Compiler 5.06 update 1 (build 61) Tool: armasm [4d35a5]
    Component: ARM Compiler 5.06 update 1 (build 61) Tool: armlink [4d35a8]

    Header size: 52 bytes (0x34)
    Program header entry size: 32 bytes (0x20)
    Section header entry size: 40 bytes (0x28)

    Program header entries: 1
    Section header entries: 16

    Program header offset: 1031200 (0x000fbc20)
    Section header offset: 1031232 (0x000fbc40)

    Section header string table index: 15

========================================================================

** Program header #0 (PT_LOAD) [PF_X + PF_W + PF_R + PF_ARM_ENTRY]
    Size : 15900 bytes (14568 bytes in file)
    Virtual address: 0x08000000 (Alignment 8)


========================================================================

** Section #1 'ER_IROM1' (SHT_PROGBITS) [SHF_ALLOC + SHF_EXECINSTR]
    Size   : 14548 bytes (alignment 4)
    Address: 0x08000000

    $d.realdata
    RESET
    __Vectors
        0x08000000:    20000548    H..     DCD    536872264
        0x08000004:    08002d09    .-..    DCD    134229257
        0x08000008:    080001ad    ....    DCD    134218157
        0x0800000c:    080001af    ....    DCD    134218159
        0x08000010:    080001b1    ....    DCD    134218161
        0x08000014:    080001b3    ....    DCD    134218163
        0x08000018:    080001b5    ....    DCD    134218165
        0x0800001c:    00000000    ....    DCD    0
        0x08000020:    00000000    ....    DCD    0
        0x08000024:    00000000    ....    DCD    0
        0x08000028:    00000000    ....    DCD    0
        0x0800002c:    080001b7    ....    DCD    134218167
        0x08000030:    080001b9    ....    DCD    134218169
        0x08000034:    00000000    ....    DCD    0
        0x08000038:    080001bb    ....    DCD    134218171
        0x0800003c:    08002d9d    .-..    DCD    134229405
        0x08000040:    080001bf    ....    DCD    134218175
        0x08000044:    080001bf    ....    DCD    134218175
        0x08000048:    080001bf    ....    DCD    134218175
        0x0800004c:    080001bf    ....    DCD    134218175
        0x08000050:    080001bf    ....    DCD    134218175
        0x08000054:    080001bf    ....    DCD    134218175
        0x08000058:    080004f1    ....    DCD    134218993
        0x0800005c:    0800052d    -...    DCD    134219053
        0x08000060:    08000589    ....    DCD    134219145
        0x08000064:    0800058f    ....    DCD    134219151
        0x08000068:    080001bf    ....    DCD    134218175
        0x0800006c:    080001bf    ....    DCD    134218175
        0x08000070:    080001bf    ....    DCD    134218175
        0x08000074:    080001bf    ....    DCD    134218175
        0x08000078:    080001bf    ....    DCD    134218175
        0x0800007c:    080001bf    ....    DCD    134218175
        0x08000080:    080001bf    ....    DCD    134218175
        0x08000084:    080001bf    ....    DCD    134218175
        0x08000088:    080001bf    ....    DCD    134218175
        0x0800008c:    080001bf    ....    DCD    134218175
        0x08000090:    080001bf    ....    DCD    134218175
        0x08000094:    080001bf    ....    DCD    134218175
        0x08000098:    080001bf    ....    DCD    134218175
        0x0800009c:    08000595    ....    DCD    134219157
        0x080000a0:    080001bf    ....    DCD    134218175
        0x080000a4:    080001bf    ....    DCD    134218175
        0x080000a8:    080001bf    ....    DCD    134218175
        0x080000ac:    080001bf    ....    DCD    134218175
        0x080000b0:    08002e59    Y...    DCD    134229593
        0x080000b4:    080001bf    ....    DCD    134218175
        0x080000b8:    080001bf    ....    DCD    134218175
        0x080000bc:    080001bf    ....    DCD    134218175
        0x080000c0:    080001bf    ....    DCD    134218175
        0x080000c4:    08001cb5    ....    DCD    134225077
        0x080000c8:    08001ca9    ....    DCD    134225065
        0x080000cc:    080001bf    ....    DCD    134218175
        0x080000d0:    080001bf    ....    DCD    134218175
        0x080000d4:    080001bf    ....    DCD    134218175
        0x080000d8:    080001bf    ....    DCD    134218175
        0x080000dc:    080001bf    ....    DCD    134218175
        0x080000e0:    080004f7    ....    DCD    134218999
        0x080000e4:    080001bf    ....    DCD    134218175
        0x080000e8:    080001bf    ....    DCD    134218175
        0x080000ec:    080001bf    ....    DCD    134218175
        0x080000f0:    080001bf    ....    DCD    134218175
        0x080000f4:    080001bf    ....    DCD    134218175
        0x080000f8:    080001bf    ....    DCD    134218175
        0x080000fc:    080001bf    ....    DCD    134218175
        0x08000100:    080001bf    ....    DCD    134218175
        0x08000104:    080001bf    ....    DCD    134218175
        0x08000108:    080001bf    ....    DCD    134218175
        0x0800010c:    080001bf    ....    DCD    134218175
        0x08000110:    080001bf    ....    DCD    134218175
        0x08000114:    080001bf    ....    DCD    134218175
        0x08000118:    080001bf    ....    DCD    134218175
        0x0800011c:    080001bf    ....    DCD    134218175
        0x08000120:    080001bf    ....    DCD    134218175
        0x08000124:    080001bf    ....    DCD    134218175
        0x08000128:    080001bf    ....    DCD    134218175
        0x0800012c:    080001bf    ....    DCD    134218175
        0x08000130:    080001bf    ....    DCD    134218175
        0x08000134:    080001bf    ....    DCD    134218175
        0x08000138:    080001bf    ....    DCD    134218175
        0x0800013c:    080001bf    ....    DCD    134218175
        0x08000140:    080001bf    ....    DCD    134218175
        0x08000144:    080001bf    ....    DCD    134218175
        0x08000148:    080001bf    ....    DCD    134218175
        0x0800014c:    080001bf    ....    DCD    134218175
        0x08000150:    080001bf    ....    DCD    134218175
        0x08000154:    080001bf    ....    DCD    134218175
        0x08000158:    080001bf    ....    DCD    134218175
        0x0800015c:    080001bf    ....    DCD    134218175
        0x08000160:    080001bf    ....    DCD    134218175
        0x08000164:    080001bf    ....    DCD    134218175
        0x08000168:    080001bf    ....    DCD    134218175
        0x0800016c:    080001bf    ....    DCD    134218175
        0x08000170:    080001bf    ....    DCD    134218175
        0x08000174:    080001bf    ....    DCD    134218175
        0x08000178:    080001bf    ....    DCD    134218175
        0x0800017c:    00000000    ....    DCD    0
        0x08000180:    080001bf    ....    DCD    134218175
        0x08000184:    080001bf    ....    DCD    134218175
    $t
    .ARM.Collect$$$$00000000
    .ARM.Collect$$$$00000001
    __Vectors_End
    __main
    _main_stk
        0x08000188:    f8dfd00c    ....    LDR      sp,__lit__00000000 ; [0x8000198] = 0x20000548
    .ARM.Collect$$$$00000004
    _main_scatterload
        0x0800018c:    f000f898    ....    BL       __scatterload ; 0x80002c0
    .ARM.Collect$$$$00000008
    .ARM.Collect$$$$0000000A
    .ARM.Collect$$$$0000000B
    __main_after_scatterload
    _main_clock
    _main_cpp_init
    _main_init
        0x08000190:    4800        .H      LDR      r0,[pc,#0] ; [0x8000194] = 0x80037d1
        0x08000192:    4700        .G      BX       r0
    $d
        0x08000194:    080037d1    .7..    DCD    134232017
    .ARM.Collect$$$$00002712
    __lit__00000000
    .ARM.Collect$$$$0000000D
    .ARM.Collect$$$$0000000F
    __rt_final_cpp
    __rt_final_exit
        0x08000198:    20000548    H..     DCD    536872264
    $t
    .emb_text
    $v0
    INTO_MAIN
        0x0800019c:    4800        .H      LDR      r0,[pc,#0] ; [0x80001a0] = 0x8000189
        0x0800019e:    4700        .G      BX       r0
    $d
        0x080001a0:    08000189    ....    DCD    134218121
    $t
    .text
    $v0
        0x080001a4:    4806        .H      LDR      r0,[pc,#24] ; [0x80001c0] = 0x8002e15
        0x080001a6:    4780        .G      BLX      r0
        0x080001a8:    4806        .H      LDR      r0,[pc,#24] ; [0x80001c4] = 0x8000189
        0x080001aa:    4700        .G      BX       r0
    NMI_Handler
        0x080001ac:    e7fe        ..      B        NMI_Handler ; 0x80001ac
    HardFault_Handler
        0x080001ae:    e7fe        ..      B        HardFault_Handler ; 0x80001ae
    MemManage_Handler
        0x080001b0:    e7fe        ..      B        MemManage_Handler ; 0x80001b0
    BusFault_Handler
        0x080001b2:    e7fe        ..      B        BusFault_Handler ; 0x80001b2
    UsageFault_Handler
        0x080001b4:    e7fe        ..      B        UsageFault_Handler ; 0x80001b4
    SVC_Handler
        0x080001b6:    e7fe        ..      B        SVC_Handler ; 0x80001b6
    DebugMon_Handler
        0x080001b8:    e7fe        ..      B        DebugMon_Handler ; 0x80001b8
    PendSV_Handler
        0x080001ba:    e7fe        ..      B        PendSV_Handler ; 0x80001ba
        0x080001bc:    e7fe        ..      B        0x80001bc ; PendSV_Handler + 2
    ADC1_2_IRQHandler
    ADC3_IRQHandler
    CAN1_RX0_IRQHandler
    CAN1_RX1_IRQHandler
    CAN1_SCE_IRQHandler
    CAN1_TX_IRQHandler
    COMP_IRQHandler
    DFSDM1_FLT0_IRQHandler
    DFSDM1_FLT1_IRQHandler
    DFSDM1_FLT2_IRQHandler
    DFSDM1_FLT3_IRQHandler
    DMA1_Channel1_IRQHandler
    DMA1_Channel2_IRQHandler
    DMA1_Channel3_IRQHandler
    DMA1_Channel4_IRQHandler
    DMA1_Channel5_IRQHandler
    DMA1_Channel6_IRQHandler
    DMA1_Channel7_IRQHandler
    DMA2_Channel1_IRQHandler
    DMA2_Channel2_IRQHandler
    DMA2_Channel3_IRQHandler
    DMA2_Channel4_IRQHandler
    DMA2_Channel5_IRQHandler
    DMA2_Channel6_IRQHandler
    DMA2_Channel7_IRQHandler
    EXTI4_IRQHandler
    FLASH_IRQHandler
    FMC_IRQHandler
    FPU_IRQHandler
    I2C1_ER_IRQHandler
    I2C1_EV_IRQHandler
    I2C3_ER_IRQHandler
    I2C3_EV_IRQHandler
    LCD_IRQHandler
    LPTIM1_IRQHandler
    LPTIM2_IRQHandler
    LPUART1_IRQHandler
    OTG_FS_IRQHandler
    PVD_PVM_IRQHandler
    QUADSPI_IRQHandler
    RCC_IRQHandler
    RNG_IRQHandler
    RTC_Alarm_IRQHandler
    RTC_WKUP_IRQHandler
    SAI1_IRQHandler
    SAI2_IRQHandler
    SDMMC1_IRQHandler
    SPI1_IRQHandler
    SPI2_IRQHandler
    SPI3_IRQHandler
    SWPMI1_IRQHandler
    TAMP_STAMP_IRQHandler
    TIM1_BRK_TIM15_IRQHandler
    TIM1_CC_IRQHandler
    TIM1_TRG_COM_TIM17_IRQHandler
    TIM1_UP_TIM16_IRQHandler
    TIM3_IRQHandler
    TIM4_IRQHandler
    TIM5_IRQHandler
    TIM6_DAC_IRQHandler
    TIM7_IRQHandler
    TIM8_BRK_IRQHandler
    TIM8_CC_IRQHandler
    TIM8_TRG_COM_IRQHandler
    TIM8_UP_IRQHandler
    TSC_IRQHandler
    UART4_IRQHandler
    UART5_IRQHandler
    USART1_IRQHandler
    USART2_IRQHandler
    USART3_IRQHandler
    WWDG_IRQHandler
        0x080001be:    e7fe        ..      B        ADC1_2_IRQHandler ; 0x80001be
    $d
        0x080001c0:    08002e15    ....    DCD    134229525
        0x080001c4:    08000189    ....    DCD    134218121
    $t
    .text
    __aeabi_uldivmod
        0x080001c8:    e92d5ff0    -.._    PUSH     {r4-r12,lr}
        0x080001cc:    4605        .F      MOV      r5,r0
        0x080001ce:    2000        .       MOVS     r0,#0
        0x080001d0:    4692        .F      MOV      r10,r2
        0x080001d2:    469b        .F      MOV      r11,r3
        0x080001d4:    4688        .F      MOV      r8,r1
        0x080001d6:    4606        .F      MOV      r6,r0
        0x080001d8:    4681        .F      MOV      r9,r0
        0x080001da:    2440        @$      MOVS     r4,#0x40
        0x080001dc:    e01b        ..      B        0x8000216 ; __aeabi_uldivmod + 78
        0x080001de:    4628        (F      MOV      r0,r5
        0x080001e0:    4641        AF      MOV      r1,r8
        0x080001e2:    4647        GF      MOV      r7,r8
        0x080001e4:    4622        "F      MOV      r2,r4
        0x080001e6:    f000f85a    ..Z.    BL       __aeabi_llsr ; 0x800029e
        0x080001ea:    4653        SF      MOV      r3,r10
        0x080001ec:    465a        ZF      MOV      r2,r11
        0x080001ee:    1ac0        ..      SUBS     r0,r0,r3
        0x080001f0:    4191        .A      SBCS     r1,r1,r2
        0x080001f2:    d310        ..      BCC      0x8000216 ; __aeabi_uldivmod + 78
        0x080001f4:    4611        .F      MOV      r1,r2
        0x080001f6:    4618        .F      MOV      r0,r3
        0x080001f8:    4622        "F      MOV      r2,r4
        0x080001fa:    f000f841    ..A.    BL       __aeabi_llsl ; 0x8000280
        0x080001fe:    1a2d        -.      SUBS     r5,r5,r0
        0x08000200:    eb670801    g...    SBC      r8,r7,r1
        0x08000204:    464f        OF      MOV      r7,r9
        0x08000206:    4622        "F      MOV      r2,r4
        0x08000208:    2001        .       MOVS     r0,#1
        0x0800020a:    2100        .!      MOVS     r1,#0
        0x0800020c:    f000f838    ..8.    BL       __aeabi_llsl ; 0x8000280
        0x08000210:    eb170900    ....    ADDS     r9,r7,r0
        0x08000214:    414e        NA      ADCS     r6,r6,r1
        0x08000216:    1e20         .      SUBS     r0,r4,#0
        0x08000218:    f1a40401    ....    SUB      r4,r4,#1
        0x0800021c:    dcdf        ..      BGT      0x80001de ; __aeabi_uldivmod + 22
        0x0800021e:    4648        HF      MOV      r0,r9
        0x08000220:    4631        1F      MOV      r1,r6
        0x08000222:    462a        *F      MOV      r2,r5
        0x08000224:    4643        CF      MOV      r3,r8
        0x08000226:    f000b800    ....    B.W      0x800022a ; __aeabi_uldivmod + 98
        0x0800022a:    bc30        0.      POP      {r4,r5}
        0x0800022c:    e8bd9fc0    ....    POP      {r6-r12,pc}
    .text
    __aeabi_memset
    __aeabi_memset4
    __aeabi_memset8
        0x08000230:    b2d2        ..      UXTB     r2,r2
        0x08000232:    e001        ..      B        0x8000238 ; __aeabi_memset + 8
        0x08000234:    f8002b01    ...+    STRB     r2,[r0],#1
        0x08000238:    1e49        I.      SUBS     r1,r1,#1
        0x0800023a:    d2fb        ..      BCS      0x8000234 ; __aeabi_memset + 4
        0x0800023c:    4770        pG      BX       lr
    __aeabi_memclr
    __aeabi_memclr4
    __aeabi_memclr8
        0x0800023e:    2200        ."      MOVS     r2,#0
        0x08000240:    e7f6        ..      B        __aeabi_memset ; 0x8000230
    _memset$wrapper
        0x08000242:    b510        ..      PUSH     {r4,lr}
        0x08000244:    4613        .F      MOV      r3,r2
        0x08000246:    460a        .F      MOV      r2,r1
        0x08000248:    4604        .F      MOV      r4,r0
        0x0800024a:    4619        .F      MOV      r1,r3
        0x0800024c:    f7fffff0    ....    BL       __aeabi_memset ; 0x8000230
        0x08000250:    4620         F      MOV      r0,r4
        0x08000252:    bd10        ..      POP      {r4,pc}
    .text
    __aeabi_uidiv
    __aeabi_uidivmod
        0x08000254:    b530        0.      PUSH     {r4,r5,lr}
        0x08000256:    460b        .F      MOV      r3,r1
        0x08000258:    4601        .F      MOV      r1,r0
        0x0800025a:    2000        .       MOVS     r0,#0
        0x0800025c:    2220         "      MOVS     r2,#0x20
        0x0800025e:    2401        .$      MOVS     r4,#1
        0x08000260:    e009        ..      B        0x8000276 ; __aeabi_uidiv + 34
        0x08000262:    fa21f502    !...    LSR      r5,r1,r2
        0x08000266:    429d        .B      CMP      r5,r3
        0x08000268:    d305        ..      BCC      0x8000276 ; __aeabi_uidiv + 34
        0x0800026a:    fa03f502    ....    LSL      r5,r3,r2
        0x0800026e:    1b49        I.      SUBS     r1,r1,r5
        0x08000270:    fa04f502    ....    LSL      r5,r4,r2
        0x08000274:    4428        (D      ADD      r0,r0,r5
        0x08000276:    1e15        ..      SUBS     r5,r2,#0
        0x08000278:    f1a20201    ....    SUB      r2,r2,#1
        0x0800027c:    dcf1        ..      BGT      0x8000262 ; __aeabi_uidiv + 14
        0x0800027e:    bd30        0.      POP      {r4,r5,pc}
    .text
    __aeabi_llsl
    _ll_shift_l
        0x08000280:    2a20         *      CMP      r2,#0x20
        0x08000282:    db04        ..      BLT      0x800028e ; __aeabi_llsl + 14
        0x08000284:    3a20         :      SUBS     r2,r2,#0x20
        0x08000286:    fa00f102    ....    LSL      r1,r0,r2
        0x0800028a:    2000        .       MOVS     r0,#0
        0x0800028c:    4770        pG      BX       lr
        0x0800028e:    4091        .@      LSLS     r1,r1,r2
        0x08000290:    f1c20320    .. .    RSB      r3,r2,#0x20
        0x08000294:    fa20f303     ...    LSR      r3,r0,r3
        0x08000298:    4319        .C      ORRS     r1,r1,r3
        0x0800029a:    4090        .@      LSLS     r0,r0,r2
        0x0800029c:    4770        pG      BX       lr
    .text
    __aeabi_llsr
    _ll_ushift_r
        0x0800029e:    2a20         *      CMP      r2,#0x20
        0x080002a0:    db04        ..      BLT      0x80002ac ; __aeabi_llsr + 14
        0x080002a2:    3a20         :      SUBS     r2,r2,#0x20
        0x080002a4:    fa21f002    !...    LSR      r0,r1,r2
        0x080002a8:    2100        .!      MOVS     r1,#0
        0x080002aa:    4770        pG      BX       lr
        0x080002ac:    fa21f302    !...    LSR      r3,r1,r2
        0x080002b0:    40d0        .@      LSRS     r0,r0,r2
        0x080002b2:    f1c20220    .. .    RSB      r2,r2,#0x20
        0x080002b6:    4091        .@      LSLS     r1,r1,r2
        0x080002b8:    4308        .C      ORRS     r0,r0,r1
        0x080002ba:    4619        .F      MOV      r1,r3
        0x080002bc:    4770        pG      BX       lr
        0x080002be:    0000        ..      MOVS     r0,r0
    .text
    __scatterload
    __scatterload_rt2
        0x080002c0:    4c06        .L      LDR      r4,[pc,#24] ; [0x80002dc] = 0x80038b4
        0x080002c2:    4d07        .M      LDR      r5,[pc,#28] ; [0x80002e0] = 0x80038d4
        0x080002c4:    e006        ..      B        0x80002d4 ; __scatterload + 20
        0x080002c6:    68e0        .h      LDR      r0,[r4,#0xc]
        0x080002c8:    f0400301    @...    ORR      r3,r0,#1
        0x080002cc:    e8940007    ....    LDM      r4,{r0-r2}
        0x080002d0:    4798        .G      BLX      r3
        0x080002d2:    3410        .4      ADDS     r4,r4,#0x10
        0x080002d4:    42ac        .B      CMP      r4,r5
        0x080002d6:    d3f6        ..      BCC      0x80002c6 ; __scatterload + 6
        0x080002d8:    f7ffff5a    ..Z.    BL       __main_after_scatterload ; 0x8000190
    $d
        0x080002dc:    080038b4    .8..    DCD    134232244
        0x080002e0:    080038d4    .8..    DCD    134232276
    $t
    i.BCD2DEC
    BCD2DEC
        0x080002e4:    0901        ..      LSRS     r1,r0,#4
        0x080002e6:    eba10181    ....    SUB      r1,r1,r1,LSL #2
        0x080002ea:    eb000041    ..A.    ADD      r0,r0,r1,LSL #1
        0x080002ee:    b2c0        ..      UXTB     r0,r0
        0x080002f0:    4770        pG      BX       lr
    i.DEC2BCD
    DEC2BCD
        0x080002f2:    210a        .!      MOVS     r1,#0xa
        0x080002f4:    fbb0f1f1    ....    UDIV     r1,r0,r1
        0x080002f8:    eb010141    ..A.    ADD      r1,r1,r1,LSL #1
        0x080002fc:    eb000041    ..A.    ADD      r0,r0,r1,LSL #1
        0x08000300:    b2c0        ..      UXTB     r0,r0
        0x08000302:    4770        pG      BX       lr
    i.DS3231_GetTime
    DS3231_GetTime
        0x08000304:    b51c        ..      PUSH     {r2-r4,lr}
        0x08000306:    4907        .I      LDR      r1,[pc,#28] ; [0x8000324] = 0x20000028
        0x08000308:    2000        .       MOVS     r0,#0
        0x0800030a:    7408        .t      STRB     r0,[r1,#0x10]
        0x0800030c:    4805        .H      LDR      r0,[pc,#20] ; [0x8000324] = 0x20000028
        0x0800030e:    2113        .!      MOVS     r1,#0x13
        0x08000310:    3814        .8      SUBS     r0,r0,#0x14
        0x08000312:    e9cd0100    ....    STRD     r0,r1,[sp,#0]
        0x08000316:    2301        .#      MOVS     r3,#1
        0x08000318:    2200        ."      MOVS     r2,#0
        0x0800031a:    21d0        .!      MOVS     r1,#0xd0
        0x0800031c:    4802        .H      LDR      r0,[pc,#8] ; [0x8000328] = 0x200000fc
        0x0800031e:    f000fba5    ....    BL       HAL_I2C_Mem_Read_IT ; 0x8000a6c
        0x08000322:    bd1c        ..      POP      {r2-r4,pc}
    $d
        0x08000324:    20000028    (..     DCD    536870952
        0x08000328:    200000fc    ...     DCD    536871164
    $t
    i.DS3231_ModifyTime
    DS3231_ModifyTime
        0x0800032c:    b570        p.      PUSH     {r4-r6,lr}
        0x0800032e:    b086        ..      SUB      sp,sp,#0x18
        0x08000330:    f10d0c28    ..(.    ADD      r12,sp,#0x28
        0x08000334:    e89c0070    ..p.    LDM      r12,{r4-r6}
        0x08000338:    f88d300f    ...0    STRB     r3,[sp,#0xf]
        0x0800033c:    f88d0012    ....    STRB     r0,[sp,#0x12]
        0x08000340:    f88d400e    ...@    STRB     r4,[sp,#0xe]
        0x08000344:    f88d1011    ....    STRB     r1,[sp,#0x11]
        0x08000348:    f88d2010    ...     STRB     r2,[sp,#0x10]
        0x0800034c:    f88d500d    ...P    STRB     r5,[sp,#0xd]
        0x08000350:    4c0d        .L      LDR      r4,[pc,#52] ; [0x8000388] = 0x20000014
        0x08000352:    f88d600c    ...`    STRB     r6,[sp,#0xc]
        0x08000356:    2200        ."      MOVS     r2,#0
        0x08000358:    ab03        ..      ADD      r3,sp,#0xc
        0x0800035a:    5c98        .\      LDRB     r0,[r3,r2]
        0x0800035c:    f7ffffc9    ....    BL       DEC2BCD ; 0x80002f2
        0x08000360:    54a0        .T      STRB     r0,[r4,r2]
        0x08000362:    1c52        R.      ADDS     r2,r2,#1
        0x08000364:    b2d2        ..      UXTB     r2,r2
        0x08000366:    2a07        .*      CMP      r2,#7
        0x08000368:    d3f7        ..      BCC      0x800035a ; DS3231_ModifyTime + 46
        0x0800036a:    2501        .%      MOVS     r5,#1
        0x0800036c:    2607        .&      MOVS     r6,#7
        0x0800036e:    e9cd4600    ...F    STRD     r4,r6,[sp,#0]
        0x08000372:    2301        .#      MOVS     r3,#1
        0x08000374:    2200        ."      MOVS     r2,#0
        0x08000376:    21d0        .!      MOVS     r1,#0xd0
        0x08000378:    4804        .H      LDR      r0,[pc,#16] ; [0x800038c] = 0x200000fc
        0x0800037a:    9502        ..      STR      r5,[sp,#8]
        0x0800037c:    f000fbe0    ....    BL       HAL_I2C_Mem_Write ; 0x8000b40
        0x08000380:    2800        .(      CMP      r0,#0
        0x08000382:    d1f4        ..      BNE      0x800036e ; DS3231_ModifyTime + 66
        0x08000384:    b006        ..      ADD      sp,sp,#0x18
        0x08000386:    bd70        p.      POP      {r4-r6,pc}
    $d
        0x08000388:    20000014    ...     DCD    536870932
        0x0800038c:    200000fc    ...     DCD    536871164
    $t
    i.DS3231_SetAlarm1_Time
    DS3231_SetAlarm1_Time
        0x08000390:    b5fe        ..      PUSH     {r1-r7,lr}
        0x08000392:    460d        .F      MOV      r5,r1
        0x08000394:    f7ffffad    ....    BL       DEC2BCD ; 0x80002f2
        0x08000398:    4c1a        .L      LDR      r4,[pc,#104] ; [0x8000404] = 0x20000014
        0x0800039a:    72a0        .r      STRB     r0,[r4,#0xa]
        0x0800039c:    4628        (F      MOV      r0,r5
        0x0800039e:    f7ffffa8    ....    BL       DEC2BCD ; 0x80002f2
        0x080003a2:    7260        `r      STRB     r0,[r4,#9]
        0x080003a4:    4610        .F      MOV      r0,r2
        0x080003a6:    f7ffffa4    ....    BL       DEC2BCD ; 0x80002f2
        0x080003aa:    7220         r      STRB     r0,[r4,#8]
        0x080003ac:    4618        .F      MOV      r0,r3
        0x080003ae:    f7ffffa0    ....    BL       DEC2BCD ; 0x80002f2
        0x080003b2:    2604        .&      MOVS     r6,#4
        0x080003b4:    71e0        .q      STRB     r0,[r4,#7]
        0x080003b6:    1de5        ..      ADDS     r5,r4,#7
        0x080003b8:    f64f74ff    O..t    MOV      r4,#0xffff
        0x080003bc:    9500        ..      STR      r5,[sp,#0]
        0x080003be:    e9cd6401    ...d    STRD     r6,r4,[sp,#4]
        0x080003c2:    2301        .#      MOVS     r3,#1
        0x080003c4:    2207        ."      MOVS     r2,#7
        0x080003c6:    21d0        .!      MOVS     r1,#0xd0
        0x080003c8:    480f        .H      LDR      r0,[pc,#60] ; [0x8000408] = 0x200000fc
        0x080003ca:    f000fbb9    ....    BL       HAL_I2C_Mem_Write ; 0x8000b40
        0x080003ce:    2800        .(      CMP      r0,#0
        0x080003d0:    d1f4        ..      BNE      0x80003bc ; DS3231_SetAlarm1_Time + 44
        0x080003d2:    480c        .H      LDR      r0,[pc,#48] ; [0x8000404] = 0x20000014
        0x080003d4:    3014        .0      ADDS     r0,r0,#0x14
        0x080003d6:    2602        .&      MOVS     r6,#2
        0x080003d8:    7a41        Az      LDRB     r1,[r0,#9]
        0x080003da:    f1000509    ....    ADD      r5,r0,#9
        0x080003de:    f0410105    A...    ORR      r1,r1,#5
        0x080003e2:    7241        Ar      STRB     r1,[r0,#9]
        0x080003e4:    7a81        .z      LDRB     r1,[r0,#0xa]
        0x080003e6:    f00101fc    ....    AND      r1,r1,#0xfc
        0x080003ea:    7281        .r      STRB     r1,[r0,#0xa]
        0x080003ec:    9500        ..      STR      r5,[sp,#0]
        0x080003ee:    e9cd6401    ...d    STRD     r6,r4,[sp,#4]
        0x080003f2:    2301        .#      MOVS     r3,#1
        0x080003f4:    220e        ."      MOVS     r2,#0xe
        0x080003f6:    21d0        .!      MOVS     r1,#0xd0
        0x080003f8:    4803        .H      LDR      r0,[pc,#12] ; [0x8000408] = 0x200000fc
        0x080003fa:    f000fba1    ....    BL       HAL_I2C_Mem_Write ; 0x8000b40
        0x080003fe:    2800        .(      CMP      r0,#0
        0x08000400:    d1f4        ..      BNE      0x80003ec ; DS3231_SetAlarm1_Time + 92
        0x08000402:    bdfe        ..      POP      {r1-r7,pc}
    $d
        0x08000404:    20000014    ...     DCD    536870932
        0x08000408:    200000fc    ...     DCD    536871164
    $t
    i.DS3231_ShowTime
    DS3231_ShowTime
        0x0800040c:    b510        ..      PUSH     {r4,lr}
        0x0800040e:    4c1c        .L      LDR      r4,[pc,#112] ; [0x8000480] = 0x20000028
        0x08000410:    b098        ..      SUB      sp,sp,#0x60
        0x08000412:    7c20         |      LDRB     r0,[r4,#0x10]
        0x08000414:    2801        .(      CMP      r0,#1
        0x08000416:    d126        &.      BNE      0x8000466 ; DS3231_ShowTime + 90
        0x08000418:    2000        .       MOVS     r0,#0
        0x0800041a:    7420         t      STRB     r0,[r4,#0x10]
        0x0800041c:    78a0        .x      LDRB     r0,[r4,#2]
        0x0800041e:    2808        .(      CMP      r0,#8
        0x08000420:    d20b        ..      BCS      0x800043a ; DS3231_ShowTime + 46
        0x08000422:    e8dff000    ....    TBB      [pc,r0]
    $d
        0x08000426:    040a        ..      DCW    1034
        0x08000428:    26242206    ."$&    DCD    639902214
        0x0800042c:    2a28        (*      DCW    10792
    $t
        0x0800042e:    a115        ..      ADR      r1,{pc}+0x56 ; 0x8000484
        0x08000430:    e000        ..      B        0x8000434 ; DS3231_ShowTime + 40
        0x08000432:    a116        ..      ADR      r1,{pc}+0x5a ; 0x800048c
        0x08000434:    a805        ..      ADD      r0,sp,#0x14
        0x08000436:    f002ffe1    ....    BL       __0sprintf$6 ; 0x80033fc
        0x0800043a:    f10d0c04    ....    ADD      r12,sp,#4
        0x0800043e:    79a3        .y      LDRB     r3,[r4,#6]
        0x08000440:    7962        by      LDRB     r2,[r4,#5]
        0x08000442:    7921        !y      LDRB     r1,[r4,#4]
        0x08000444:    a805        ..      ADD      r0,sp,#0x14
        0x08000446:    e88c000f    ....    STM      r12,{r0-r3}
        0x0800044a:    78e0        .x      LDRB     r0,[r4,#3]
        0x0800044c:    9000        ..      STR      r0,[sp,#0]
        0x0800044e:    7822        "x      LDRB     r2,[r4,#0]
        0x08000450:    7863        cx      LDRB     r3,[r4,#1]
        0x08000452:    a110        ..      ADR      r1,{pc}+0x42 ; 0x8000494
        0x08000454:    a80a        ..      ADD      r0,sp,#0x28
        0x08000456:    f50262fa    ...b    ADD      r2,r2,#0x7d0
        0x0800045a:    f002ffcf    ....    BL       __0sprintf$6 ; 0x80033fc
        0x0800045e:    a90a        ..      ADD      r1,sp,#0x28
        0x08000460:    a015        ..      ADR      r0,{pc}+0x58 ; 0x80004b8
        0x08000462:    f002ffbb    ....    BL       __0printf$6 ; 0x80033dc
        0x08000466:    b018        ..      ADD      sp,sp,#0x60
        0x08000468:    bd10        ..      POP      {r4,pc}
        0x0800046a:    a114        ..      ADR      r1,{pc}+0x52 ; 0x80004bc
        0x0800046c:    e7e2        ..      B        0x8000434 ; DS3231_ShowTime + 40
        0x0800046e:    a116        ..      ADR      r1,{pc}+0x5a ; 0x80004c8
        0x08000470:    e7e0        ..      B        0x8000434 ; DS3231_ShowTime + 40
        0x08000472:    a118        ..      ADR      r1,{pc}+0x62 ; 0x80004d4
        0x08000474:    e7de        ..      B        0x8000434 ; DS3231_ShowTime + 40
        0x08000476:    a119        ..      ADR      r1,{pc}+0x66 ; 0x80004dc
        0x08000478:    e7dc        ..      B        0x8000434 ; DS3231_ShowTime + 40
        0x0800047a:    a11b        ..      ADR      r1,{pc}+0x6e ; 0x80004e8
        0x0800047c:    e7da        ..      B        0x8000434 ; DS3231_ShowTime + 40
    $d
        0x0800047e:    0000        ..      DCW    0
        0x08000480:    20000028    (..     DCD    536870952
        0x08000484:    444e4f4d    MOND    DCD    1145982797
        0x08000488:    00005941    AY..    DCD    22849
        0x0800048c:    53455554    TUES    DCD    1397052756
        0x08000490:    00594144    DAY.    DCD    5849412
        0x08000494:    64323025    %02d    DCD    1681010725
        0x08000498:    3230253a    :%02    DCD    842016058
        0x0800049c:    30253a64    d:%0    DCD    807746148
        0x080004a0:    25206432    2d %    DCD    622879794
        0x080004a4:    30252073    s %0    DCD    807739507
        0x080004a8:    253a6432    2d:%    DCD    624583730
        0x080004ac:    3a643230    02d:    DCD    979644976
        0x080004b0:    64323025    %02d    DCD    1681010725
        0x080004b4:    00000a0d    ....    DCD    2573
        0x080004b8:    00007325    %s..    DCD    29477
        0x080004bc:    4e444557    WEDN    DCD    1313097047
        0x080004c0:    41445345    ESDA    DCD    1094996805
        0x080004c4:    00000059    Y...    DCD    89
        0x080004c8:    52554854    THUR    DCD    1381320788
        0x080004cc:    59414453    SDAY    DCD    1497449555
        0x080004d0:    00000000    ....    DCD    0
        0x080004d4:    44495246    FRID    DCD    1145655878
        0x080004d8:    00005941    AY..    DCD    22849
        0x080004dc:    55544153    SATU    DCD    1431585107
        0x080004e0:    59414452    RDAY    DCD    1497449554
        0x080004e4:    00000000    ....    DCD    0
        0x080004e8:    444e5553    SUND    DCD    1145984339
        0x080004ec:    00005941    AY..    DCD    22849
    $t
    i.EXTI0_IRQHandler
    EXTI0_IRQHandler
        0x080004f0:    2001        .       MOVS     r0,#1
        0x080004f2:    f000b89d    ....    B.W      HAL_GPIO_EXTI_IRQHandler ; 0x8000630
    i.EXTI15_10_IRQHandler
    EXTI15_10_IRQHandler
        0x080004f6:    b510        ..      PUSH     {r4,lr}
        0x080004f8:    f44f6080    O..`    MOV      r0,#0x400
        0x080004fc:    f000f898    ....    BL       HAL_GPIO_EXTI_IRQHandler ; 0x8000630
        0x08000500:    f44f6000    O..`    MOV      r0,#0x800
        0x08000504:    f000f894    ....    BL       HAL_GPIO_EXTI_IRQHandler ; 0x8000630
        0x08000508:    f44f5080    O..P    MOV      r0,#0x1000
        0x0800050c:    f000f890    ....    BL       HAL_GPIO_EXTI_IRQHandler ; 0x8000630
        0x08000510:    f44f5000    O..P    MOV      r0,#0x2000
        0x08000514:    f000f88c    ....    BL       HAL_GPIO_EXTI_IRQHandler ; 0x8000630
        0x08000518:    f44f4080    O..@    MOV      r0,#0x4000
        0x0800051c:    f000f888    ....    BL       HAL_GPIO_EXTI_IRQHandler ; 0x8000630
        0x08000520:    e8bd4010    ...@    POP      {r4,lr}
        0x08000524:    f44f4000    O..@    MOV      r0,#0x8000
        0x08000528:    f000b882    ....    B.W      HAL_GPIO_EXTI_IRQHandler ; 0x8000630
    i.EXTI1_IRQHandler
    EXTI1_IRQHandler
        0x0800052c:    2002        .       MOVS     r0,#2
        0x0800052e:    f000b87f    ....    B.W      HAL_GPIO_EXTI_IRQHandler ; 0x8000630
    i.HAL_GPIO_EXTI_Callback
    HAL_GPIO_EXTI_Callback
        0x08000532:    4770        pG      BX       lr
    .ARM.__at_0x08000534
    TOGGLE_RESET_EXTI_CALLBACK
        0x08000534:    b57c        |.      PUSH     {r2-r6,lr}
        0x08000536:    2000        .       MOVS     r0,#0
        0x08000538:    4e11        .N      LDR      r6,[pc,#68] ; [0x8000580] = 0x807f7f8
        0x0800053a:    9000        ..      STR      r0,[sp,#0]
        0x0800053c:    9001        ..      STR      r0,[sp,#4]
        0x0800053e:    240f        .$      MOVS     r4,#0xf
        0x08000540:    4630        0F      MOV      r0,r6
        0x08000542:    f002fc29    ..).    BL       STMFLASH_Read32 ; 0x8002d98
        0x08000546:    4d0f        .M      LDR      r5,[pc,#60] ; [0x8000584] = 0x4a554d50
        0x08000548:    1c40        @.      ADDS     r0,r0,#1
        0x0800054a:    d00c        ..      BEQ      0x8000566 ; TOGGLE_RESET_EXTI_CALLBACK + 50
        0x0800054c:    4630        0F      MOV      r0,r6
        0x0800054e:    f002fc23    ..#.    BL       STMFLASH_Read32 ; 0x8002d98
        0x08000552:    42a8        .B      CMP      r0,r5
        0x08000554:    d111        ..      BNE      0x800057a ; TOGGLE_RESET_EXTI_CALLBACK + 70
        0x08000556:    20fe        .       MOVS     r0,#0xfe
        0x08000558:    f002f99c    ....    BL       LL_FLASH_PageErase ; 0x8002894
        0x0800055c:    f002fbe0    ....    BL       STMFLASH_BankSwitch ; 0x8002d20
        0x08000560:    b150        P.      CBZ      r0,0x8000578 ; TOGGLE_RESET_EXTI_CALLBACK + 68
        0x08000562:    241f        .$      MOVS     r4,#0x1f
        0x08000564:    e009        ..      B        0x800057a ; TOGGLE_RESET_EXTI_CALLBACK + 70
        0x08000566:    9500        ..      STR      r5,[sp,#0]
        0x08000568:    4669        iF      MOV      r1,sp
        0x0800056a:    4630        0F      MOV      r0,r6
        0x0800056c:    9501        ..      STR      r5,[sp,#4]
        0x0800056e:    f002f9cf    ....    BL       LL_FLASH_Program64 ; 0x8002910
        0x08000572:    b910        ..      CBNZ     r0,0x800057a ; TOGGLE_RESET_EXTI_CALLBACK + 70
        0x08000574:    2400        .$      MOVS     r4,#0
        0x08000576:    e000        ..      B        0x800057a ; TOGGLE_RESET_EXTI_CALLBACK + 70
        0x08000578:    2410        .$      MOVS     r4,#0x10
        0x0800057a:    4620         F      MOV      r0,r4
        0x0800057c:    bd7c        |.      POP      {r2-r6,pc}
    $d
        0x0800057e:    0000        ..      DCW    0
        0x08000580:    0807f7f8    ....    DCD    134739960
        0x08000584:    4a554d50    PMUJ    DCD    1247104336
    $t
    i.EXTI2_IRQHandler
    EXTI2_IRQHandler
        0x08000588:    2004        .       MOVS     r0,#4
        0x0800058a:    f000b851    ..Q.    B.W      HAL_GPIO_EXTI_IRQHandler ; 0x8000630
    i.EXTI3_IRQHandler
    EXTI3_IRQHandler
        0x0800058e:    2008        .       MOVS     r0,#8
        0x08000590:    f000b84e    ..N.    B.W      HAL_GPIO_EXTI_IRQHandler ; 0x8000630
    i.EXTI9_5_IRQHandler
    EXTI9_5_IRQHandler
        0x08000594:    b510        ..      PUSH     {r4,lr}
        0x08000596:    2020                MOVS     r0,#0x20
        0x08000598:    f000f84a    ..J.    BL       HAL_GPIO_EXTI_IRQHandler ; 0x8000630
        0x0800059c:    2040        @       MOVS     r0,#0x40
        0x0800059e:    f000f847    ..G.    BL       HAL_GPIO_EXTI_IRQHandler ; 0x8000630
        0x080005a2:    2080        .       MOVS     r0,#0x80
        0x080005a4:    f000f844    ..D.    BL       HAL_GPIO_EXTI_IRQHandler ; 0x8000630
        0x080005a8:    f44f7080    O..p    MOV      r0,#0x100
        0x080005ac:    f000f840    ..@.    BL       HAL_GPIO_EXTI_IRQHandler ; 0x8000630
        0x080005b0:    e8bd4010    ...@    POP      {r4,lr}
        0x080005b4:    f44f7000    O..p    MOV      r0,#0x200
        0x080005b8:    f000b83a    ..:.    B.W      HAL_GPIO_EXTI_IRQHandler ; 0x8000630
    i.HAL_DMA_Abort_IT
    HAL_DMA_Abort_IT
        0x080005bc:    b510        ..      PUSH     {r4,lr}
        0x080005be:    f8901025    ..%.    LDRB     r1,[r0,#0x25]
        0x080005c2:    2400        .$      MOVS     r4,#0
        0x080005c4:    2902        .)      CMP      r1,#2
        0x080005c6:    d003        ..      BEQ      0x80005d0 ; HAL_DMA_Abort_IT + 20
        0x080005c8:    2104        .!      MOVS     r1,#4
        0x080005ca:    63c1        .c      STR      r1,[r0,#0x3c]
        0x080005cc:    2401        .$      MOVS     r4,#1
        0x080005ce:    e01a        ..      B        0x8000606 ; HAL_DMA_Abort_IT + 74
        0x080005d0:    6801        .h      LDR      r1,[r0,#0]
        0x080005d2:    680a        .h      LDR      r2,[r1,#0]
        0x080005d4:    f022020e    "...    BIC      r2,r2,#0xe
        0x080005d8:    600a        .`      STR      r2,[r1,#0]
        0x080005da:    6801        .h      LDR      r1,[r0,#0]
        0x080005dc:    680a        .h      LDR      r2,[r1,#0]
        0x080005de:    f0220201    "...    BIC      r2,r2,#1
        0x080005e2:    600a        .`      STR      r2,[r1,#0]
        0x080005e4:    f8901044    ..D.    LDRB     r1,[r0,#0x44]
        0x080005e8:    6c03        .l      LDR      r3,[r0,#0x40]
        0x080005ea:    f001021c    ....    AND      r2,r1,#0x1c
        0x080005ee:    2101        .!      MOVS     r1,#1
        0x080005f0:    fa01f202    ....    LSL      r2,r1,r2
        0x080005f4:    605a        Z`      STR      r2,[r3,#4]
        0x080005f6:    f8801025    ..%.    STRB     r1,[r0,#0x25]
        0x080005fa:    2100        .!      MOVS     r1,#0
        0x080005fc:    f8801024    ..$.    STRB     r1,[r0,#0x24]
        0x08000600:    6b81        .k      LDR      r1,[r0,#0x38]
        0x08000602:    b101        ..      CBZ      r1,0x8000606 ; HAL_DMA_Abort_IT + 74
        0x08000604:    4788        .G      BLX      r1
        0x08000606:    4620         F      MOV      r0,r4
        0x08000608:    bd10        ..      POP      {r4,pc}
        0x0800060a:    0000        ..      MOVS     r0,r0
    i.HAL_Delay
    HAL_Delay
        0x0800060c:    b570        p.      PUSH     {r4-r6,lr}
        0x0800060e:    4604        .F      MOV      r4,r0
        0x08000610:    f000f900    ....    BL       HAL_GetTick ; 0x8000814
        0x08000614:    4605        .F      MOV      r5,r0
        0x08000616:    1c60        `.      ADDS     r0,r4,#1
        0x08000618:    d002        ..      BEQ      0x8000620 ; HAL_Delay + 20
        0x0800061a:    4804        .H      LDR      r0,[pc,#16] ; [0x800062c] = 0x20000000
        0x0800061c:    6840        @h      LDR      r0,[r0,#4]
        0x0800061e:    4404        .D      ADD      r4,r4,r0
        0x08000620:    f000f8f8    ....    BL       HAL_GetTick ; 0x8000814
        0x08000624:    1b40        @.      SUBS     r0,r0,r5
        0x08000626:    42a0        .B      CMP      r0,r4
        0x08000628:    d3fa        ..      BCC      0x8000620 ; HAL_Delay + 20
        0x0800062a:    bd70        p.      POP      {r4-r6,pc}
    $d
        0x0800062c:    20000000    ...     DCD    536870912
    $t
    i.HAL_GPIO_EXTI_IRQHandler
    HAL_GPIO_EXTI_IRQHandler
        0x08000630:    4904        .I      LDR      r1,[pc,#16] ; [0x8000644] = 0x40010414
        0x08000632:    b510        ..      PUSH     {r4,lr}
        0x08000634:    680a        .h      LDR      r2,[r1,#0]
        0x08000636:    4202        .B      TST      r2,r0
        0x08000638:    d002        ..      BEQ      0x8000640 ; HAL_GPIO_EXTI_IRQHandler + 16
        0x0800063a:    6008        .`      STR      r0,[r1,#0]
        0x0800063c:    f7ffff79    ..y.    BL       HAL_GPIO_EXTI_Callback ; 0x8000532
        0x08000640:    bd10        ..      POP      {r4,pc}
    $d
        0x08000642:    0000        ..      DCW    0
        0x08000644:    40010414    ...@    DCD    1073808404
    $t
    i.HAL_GPIO_Init
    HAL_GPIO_Init
        0x08000648:    e92d4ff8    -..O    PUSH     {r3-r11,lr}
        0x0800064c:    f8dfb198    ....    LDR      r11,[pc,#408] ; [0x80007e8] = 0x40010400
        0x08000650:    2300        .#      MOVS     r3,#0
        0x08000652:    f04f0c01    O...    MOV      r12,#1
        0x08000656:    f04f0a03    O...    MOV      r10,#3
        0x0800065a:    f04f090f    O...    MOV      r9,#0xf
        0x0800065e:    f10b0e04    ....    ADD      lr,r11,#4
        0x08000662:    e0b9        ..      B        0x80007d8 ; HAL_GPIO_Init + 400
        0x08000664:    fa0cf403    ....    LSL      r4,r12,r3
        0x08000668:    4022        "@      ANDS     r2,r2,r4
        0x0800066a:    d070        p.      BEQ      0x800074e ; HAL_GPIO_Init + 262
        0x0800066c:    684d        Mh      LDR      r5,[r1,#4]
        0x0800066e:    2d02        .-      CMP      r5,#2
        0x08000670:    d001        ..      BEQ      0x8000676 ; HAL_GPIO_Init + 46
        0x08000672:    2d12        .-      CMP      r5,#0x12
        0x08000674:    d10e        ..      BNE      0x8000694 ; HAL_GPIO_Init + 76
        0x08000676:    08dd        ..      LSRS     r5,r3,#3
        0x08000678:    eb000885    ....    ADD      r8,r0,r5,LSL #2
        0x0800067c:    f8d85020    .. P    LDR      r5,[r8,#0x20]
        0x08000680:    075e        ^.      LSLS     r6,r3,#29
        0x08000682:    0ef7        ..      LSRS     r7,r6,#27
        0x08000684:    fa09f607    ....    LSL      r6,r9,r7
        0x08000688:    43b5        .C      BICS     r5,r5,r6
        0x0800068a:    690e        .i      LDR      r6,[r1,#0x10]
        0x0800068c:    40be        .@      LSLS     r6,r6,r7
        0x0800068e:    432e        .C      ORRS     r6,r6,r5
        0x08000690:    f8c86020    .. `    STR      r6,[r8,#0x20]
        0x08000694:    6807        .h      LDR      r7,[r0,#0]
        0x08000696:    005e        ^.      LSLS     r6,r3,#1
        0x08000698:    f8918004    ....    LDRB     r8,[r1,#4]
        0x0800069c:    fa0af506    ....    LSL      r5,r10,r6
        0x080006a0:    f0080803    ....    AND      r8,r8,#3
        0x080006a4:    43af        .C      BICS     r7,r7,r5
        0x080006a6:    fa08f806    ....    LSL      r8,r8,r6
        0x080006aa:    ea480807    H...    ORR      r8,r8,r7
        0x080006ae:    f8c08000    ....    STR      r8,[r0,#0]
        0x080006b2:    684f        Oh      LDR      r7,[r1,#4]
        0x080006b4:    2f01        ./      CMP      r7,#1
        0x080006b6:    d005        ..      BEQ      0x80006c4 ; HAL_GPIO_Init + 124
        0x080006b8:    2f02        ./      CMP      r7,#2
        0x080006ba:    d003        ..      BEQ      0x80006c4 ; HAL_GPIO_Init + 124
        0x080006bc:    2f11        ./      CMP      r7,#0x11
        0x080006be:    d001        ..      BEQ      0x80006c4 ; HAL_GPIO_Init + 124
        0x080006c0:    2f12        ./      CMP      r7,#0x12
        0x080006c2:    d113        ..      BNE      0x80006ec ; HAL_GPIO_Init + 164
        0x080006c4:    f8d08008    ....    LDR      r8,[r0,#8]
        0x080006c8:    68cf        .h      LDR      r7,[r1,#0xc]
        0x080006ca:    ea280805    (...    BIC      r8,r8,r5
        0x080006ce:    40b7        .@      LSLS     r7,r7,r6
        0x080006d0:    ea470708    G...    ORR      r7,r7,r8
        0x080006d4:    6087        .`      STR      r7,[r0,#8]
        0x080006d6:    f8d08004    ....    LDR      r8,[r0,#4]
        0x080006da:    790f        .y      LDRB     r7,[r1,#4]
        0x080006dc:    ea280804    (...    BIC      r8,r8,r4
        0x080006e0:    f3c71700    ....    UBFX     r7,r7,#4,#1
        0x080006e4:    409f        .@      LSLS     r7,r7,r3
        0x080006e6:    ea470708    G...    ORR      r7,r7,r8
        0x080006ea:    6047        G`      STR      r7,[r0,#4]
        0x080006ec:    f8d18004    ....    LDR      r8,[r1,#4]
        0x080006f0:    ea6f0708    o...    MVN      r7,r8
        0x080006f4:    07bf        ..      LSLS     r7,r7,#30
        0x080006f6:    d106        ..      BNE      0x8000706 ; HAL_GPIO_Init + 190
        0x080006f8:    6ac7        .j      LDR      r7,[r0,#0x2c]
        0x080006fa:    43a7        .C      BICS     r7,r7,r4
        0x080006fc:    f3c804c0    ....    UBFX     r4,r8,#3,#1
        0x08000700:    409c        .@      LSLS     r4,r4,r3
        0x08000702:    433c        <C      ORRS     r4,r4,r7
        0x08000704:    62c4        .b      STR      r4,[r0,#0x2c]
        0x08000706:    68c4        .h      LDR      r4,[r0,#0xc]
        0x08000708:    43ac        .C      BICS     r4,r4,r5
        0x0800070a:    688d        .h      LDR      r5,[r1,#8]
        0x0800070c:    40b5        .@      LSLS     r5,r5,r6
        0x0800070e:    4325        %C      ORRS     r5,r5,r4
        0x08000710:    60c5        .`      STR      r5,[r0,#0xc]
        0x08000712:    684c        Lh      LDR      r4,[r1,#4]
        0x08000714:    00e4        ..      LSLS     r4,r4,#3
        0x08000716:    d55e        ^.      BPL      0x80007d6 ; HAL_GPIO_Init + 398
        0x08000718:    4c34        4L      LDR      r4,[pc,#208] ; [0x80007ec] = 0x40021000
        0x0800071a:    6e25        %n      LDR      r5,[r4,#0x60]
        0x0800071c:    f0450501    E...    ORR      r5,r5,#1
        0x08000720:    6625        %f      STR      r5,[r4,#0x60]
        0x08000722:    6e24        $n      LDR      r4,[r4,#0x60]
        0x08000724:    f0230503    #...    BIC      r5,r3,#3
        0x08000728:    f0040401    ....    AND      r4,r4,#1
        0x0800072c:    9400        ..      STR      r4,[sp,#0]
        0x0800072e:    4c30        0L      LDR      r4,[pc,#192] ; [0x80007f0] = 0x40010000
        0x08000730:    192e        ..      ADDS     r6,r5,r4
        0x08000732:    68b4        .h      LDR      r4,[r6,#8]
        0x08000734:    079d        ..      LSLS     r5,r3,#30
        0x08000736:    0f2f        /.      LSRS     r7,r5,#28
        0x08000738:    fa09f507    ....    LSL      r5,r9,r7
        0x0800073c:    43ac        .C      BICS     r4,r4,r5
        0x0800073e:    f1b04f90    ...O    CMP      r0,#0x48000000
        0x08000742:    d005        ..      BEQ      0x8000750 ; HAL_GPIO_Init + 264
        0x08000744:    4d2b        +M      LDR      r5,[pc,#172] ; [0x80007f4] = 0x48000400
        0x08000746:    42a8        .B      CMP      r0,r5
        0x08000748:    d104        ..      BNE      0x8000754 ; HAL_GPIO_Init + 268
        0x0800074a:    2501        .%      MOVS     r5,#1
        0x0800074c:    e01c        ..      B        0x8000788 ; HAL_GPIO_Init + 320
        0x0800074e:    e042        B.      B        0x80007d6 ; HAL_GPIO_Init + 398
        0x08000750:    2500        .%      MOVS     r5,#0
        0x08000752:    e019        ..      B        0x8000788 ; HAL_GPIO_Init + 320
        0x08000754:    4d28        (M      LDR      r5,[pc,#160] ; [0x80007f8] = 0x48000800
        0x08000756:    42a8        .B      CMP      r0,r5
        0x08000758:    d101        ..      BNE      0x800075e ; HAL_GPIO_Init + 278
        0x0800075a:    2502        .%      MOVS     r5,#2
        0x0800075c:    e014        ..      B        0x8000788 ; HAL_GPIO_Init + 320
        0x0800075e:    4d27        'M      LDR      r5,[pc,#156] ; [0x80007fc] = 0x48000c00
        0x08000760:    42a8        .B      CMP      r0,r5
        0x08000762:    d101        ..      BNE      0x8000768 ; HAL_GPIO_Init + 288
        0x08000764:    2503        .%      MOVS     r5,#3
        0x08000766:    e00f        ..      B        0x8000788 ; HAL_GPIO_Init + 320
        0x08000768:    4d25        %M      LDR      r5,[pc,#148] ; [0x8000800] = 0x48001000
        0x0800076a:    42a8        .B      CMP      r0,r5
        0x0800076c:    d101        ..      BNE      0x8000772 ; HAL_GPIO_Init + 298
        0x0800076e:    2504        .%      MOVS     r5,#4
        0x08000770:    e00a        ..      B        0x8000788 ; HAL_GPIO_Init + 320
        0x08000772:    4d24        $M      LDR      r5,[pc,#144] ; [0x8000804] = 0x48001400
        0x08000774:    42a8        .B      CMP      r0,r5
        0x08000776:    d101        ..      BNE      0x800077c ; HAL_GPIO_Init + 308
        0x08000778:    2505        .%      MOVS     r5,#5
        0x0800077a:    e005        ..      B        0x8000788 ; HAL_GPIO_Init + 320
        0x0800077c:    4d22        "M      LDR      r5,[pc,#136] ; [0x8000808] = 0x48001800
        0x0800077e:    42a8        .B      CMP      r0,r5
        0x08000780:    d101        ..      BNE      0x8000786 ; HAL_GPIO_Init + 318
        0x08000782:    2506        .%      MOVS     r5,#6
        0x08000784:    e000        ..      B        0x8000788 ; HAL_GPIO_Init + 320
        0x08000786:    2507        .%      MOVS     r5,#7
        0x08000788:    40bd        .@      LSLS     r5,r5,r7
        0x0800078a:    4325        %C      ORRS     r5,r5,r4
        0x0800078c:    60b5        .`      STR      r5,[r6,#8]
        0x0800078e:    f8db4000    ...@    LDR      r4,[r11,#0]
        0x08000792:    465d        ]F      MOV      r5,r11
        0x08000794:    684e        Nh      LDR      r6,[r1,#4]
        0x08000796:    4394        .C      BICS     r4,r4,r2
        0x08000798:    03f6        ..      LSLS     r6,r6,#15
        0x0800079a:    d500        ..      BPL      0x800079e ; HAL_GPIO_Init + 342
        0x0800079c:    4314        .C      ORRS     r4,r4,r2
        0x0800079e:    602c        ,`      STR      r4,[r5,#0]
        0x080007a0:    f8de4000    ...@    LDR      r4,[lr,#0]
        0x080007a4:    4675        uF      MOV      r5,lr
        0x080007a6:    684e        Nh      LDR      r6,[r1,#4]
        0x080007a8:    4394        .C      BICS     r4,r4,r2
        0x080007aa:    03b6        ..      LSLS     r6,r6,#14
        0x080007ac:    d500        ..      BPL      0x80007b0 ; HAL_GPIO_Init + 360
        0x080007ae:    4314        .C      ORRS     r4,r4,r2
        0x080007b0:    602c        ,`      STR      r4,[r5,#0]
        0x080007b2:    4d0d        .M      LDR      r5,[pc,#52] ; [0x80007e8] = 0x40010400
        0x080007b4:    3508        .5      ADDS     r5,r5,#8
        0x080007b6:    682c        ,h      LDR      r4,[r5,#0]
        0x080007b8:    684e        Nh      LDR      r6,[r1,#4]
        0x080007ba:    4394        .C      BICS     r4,r4,r2
        0x080007bc:    02f6        ..      LSLS     r6,r6,#11
        0x080007be:    d500        ..      BPL      0x80007c2 ; HAL_GPIO_Init + 378
        0x080007c0:    4314        .C      ORRS     r4,r4,r2
        0x080007c2:    602c        ,`      STR      r4,[r5,#0]
        0x080007c4:    4d08        .M      LDR      r5,[pc,#32] ; [0x80007e8] = 0x40010400
        0x080007c6:    350c        .5      ADDS     r5,r5,#0xc
        0x080007c8:    682c        ,h      LDR      r4,[r5,#0]
        0x080007ca:    684e        Nh      LDR      r6,[r1,#4]
        0x080007cc:    4394        .C      BICS     r4,r4,r2
        0x080007ce:    02b6        ..      LSLS     r6,r6,#10
        0x080007d0:    d500        ..      BPL      0x80007d4 ; HAL_GPIO_Init + 396
        0x080007d2:    4314        .C      ORRS     r4,r4,r2
        0x080007d4:    602c        ,`      STR      r4,[r5,#0]
        0x080007d6:    1c5b        [.      ADDS     r3,r3,#1
        0x080007d8:    680a        .h      LDR      r2,[r1,#0]
        0x080007da:    fa32f503    2...    LSRS     r5,r2,r3
        0x080007de:    f47faf41    ..A.    BNE      0x8000664 ; HAL_GPIO_Init + 28
        0x080007e2:    f000b813    ....    B.W      0x800080c ; HAL_GPIO_Init + 452
    $d
        0x080007e6:    0000        ..      DCW    0
        0x080007e8:    40010400    ...@    DCD    1073808384
        0x080007ec:    40021000    ...@    DCD    1073876992
        0x080007f0:    40010000    ...@    DCD    1073807360
        0x080007f4:    48000400    ...H    DCD    1207960576
        0x080007f8:    48000800    ...H    DCD    1207961600
        0x080007fc:    48000c00    ...H    DCD    1207962624
        0x08000800:    48001000    ...H    DCD    1207963648
        0x08000804:    48001400    ...H    DCD    1207964672
        0x08000808:    48001800    ...H    DCD    1207965696
    $t
        0x0800080c:    bc18        ..      POP      {r3,r4}
        0x0800080e:    e8bd8fe0    ....    POP      {r5-r11,pc}
        0x08000812:    0000        ..      MOVS     r0,r0
    i.HAL_GetTick
    HAL_GetTick
        0x08000814:    4801        .H      LDR      r0,[pc,#4] ; [0x800081c] = 0x20000000
        0x08000816:    6880        .h      LDR      r0,[r0,#8]
        0x08000818:    4770        pG      BX       lr
    $d
        0x0800081a:    0000        ..      DCW    0
        0x0800081c:    20000000    ...     DCD    536870912
    $t
    i.HAL_I2CEx_ConfigAnalogFilter
    HAL_I2CEx_ConfigAnalogFilter
        0x08000820:    f8902041    ..A     LDRB     r2,[r0,#0x41]
        0x08000824:    2a20         *      CMP      r2,#0x20
        0x08000826:    d124        $.      BNE      0x8000872 ; HAL_I2CEx_ConfigAnalogFilter + 82
        0x08000828:    f8902040    ..@     LDRB     r2,[r0,#0x40]
        0x0800082c:    2a01        .*      CMP      r2,#1
        0x0800082e:    d020         .      BEQ      0x8000872 ; HAL_I2CEx_ConfigAnalogFilter + 82
        0x08000830:    2201        ."      MOVS     r2,#1
        0x08000832:    f8802040    ..@     STRB     r2,[r0,#0x40]
        0x08000836:    2224        $"      MOVS     r2,#0x24
        0x08000838:    f8802041    ..A     STRB     r2,[r0,#0x41]
        0x0800083c:    6802        .h      LDR      r2,[r0,#0]
        0x0800083e:    6813        .h      LDR      r3,[r2,#0]
        0x08000840:    f0230301    #...    BIC      r3,r3,#1
        0x08000844:    6013        .`      STR      r3,[r2,#0]
        0x08000846:    6802        .h      LDR      r2,[r0,#0]
        0x08000848:    6813        .h      LDR      r3,[r2,#0]
        0x0800084a:    f4235380    #..S    BIC      r3,r3,#0x1000
        0x0800084e:    6013        .`      STR      r3,[r2,#0]
        0x08000850:    6802        .h      LDR      r2,[r0,#0]
        0x08000852:    6813        .h      LDR      r3,[r2,#0]
        0x08000854:    430b        .C      ORRS     r3,r3,r1
        0x08000856:    6013        .`      STR      r3,[r2,#0]
        0x08000858:    6801        .h      LDR      r1,[r0,#0]
        0x0800085a:    680a        .h      LDR      r2,[r1,#0]
        0x0800085c:    f0420201    B...    ORR      r2,r2,#1
        0x08000860:    600a        .`      STR      r2,[r1,#0]
        0x08000862:    2120         !      MOVS     r1,#0x20
        0x08000864:    f8801041    ..A.    STRB     r1,[r0,#0x41]
        0x08000868:    2100        .!      MOVS     r1,#0
        0x0800086a:    f8801040    ..@.    STRB     r1,[r0,#0x40]
        0x0800086e:    4608        .F      MOV      r0,r1
        0x08000870:    4770        pG      BX       lr
        0x08000872:    2002        .       MOVS     r0,#2
        0x08000874:    4770        pG      BX       lr
    i.HAL_I2CEx_ConfigDigitalFilter
    HAL_I2CEx_ConfigDigitalFilter
        0x08000876:    f8902041    ..A     LDRB     r2,[r0,#0x41]
        0x0800087a:    2a20         *      CMP      r2,#0x20
        0x0800087c:    d122        ".      BNE      0x80008c4 ; HAL_I2CEx_ConfigDigitalFilter + 78
        0x0800087e:    f8902040    ..@     LDRB     r2,[r0,#0x40]
        0x08000882:    2a01        .*      CMP      r2,#1
        0x08000884:    d01e        ..      BEQ      0x80008c4 ; HAL_I2CEx_ConfigDigitalFilter + 78
        0x08000886:    2201        ."      MOVS     r2,#1
        0x08000888:    f8802040    ..@     STRB     r2,[r0,#0x40]
        0x0800088c:    2224        $"      MOVS     r2,#0x24
        0x0800088e:    f8802041    ..A     STRB     r2,[r0,#0x41]
        0x08000892:    6802        .h      LDR      r2,[r0,#0]
        0x08000894:    6813        .h      LDR      r3,[r2,#0]
        0x08000896:    f0230301    #...    BIC      r3,r3,#1
        0x0800089a:    6013        .`      STR      r3,[r2,#0]
        0x0800089c:    6802        .h      LDR      r2,[r0,#0]
        0x0800089e:    6813        .h      LDR      r3,[r2,#0]
        0x080008a0:    f4236370    #.pc    BIC      r3,r3,#0xf00
        0x080008a4:    ea432101    C..!    ORR      r1,r3,r1,LSL #8
        0x080008a8:    6011        .`      STR      r1,[r2,#0]
        0x080008aa:    6801        .h      LDR      r1,[r0,#0]
        0x080008ac:    680a        .h      LDR      r2,[r1,#0]
        0x080008ae:    f0420201    B...    ORR      r2,r2,#1
        0x080008b2:    600a        .`      STR      r2,[r1,#0]
        0x080008b4:    2120         !      MOVS     r1,#0x20
        0x080008b6:    f8801041    ..A.    STRB     r1,[r0,#0x41]
        0x080008ba:    2100        .!      MOVS     r1,#0
        0x080008bc:    f8801040    ..@.    STRB     r1,[r0,#0x40]
        0x080008c0:    4608        .F      MOV      r0,r1
        0x080008c2:    4770        pG      BX       lr
        0x080008c4:    2002        .       MOVS     r0,#2
        0x080008c6:    4770        pG      BX       lr
    i.HAL_I2C_AbortCpltCallback
    HAL_I2C_AbortCpltCallback
        0x080008c8:    4770        pG      BX       lr
    i.HAL_I2C_AddrCallback
    HAL_I2C_AddrCallback
        0x080008ca:    4770        pG      BX       lr
    i.HAL_I2C_ER_IRQHandler
    HAL_I2C_ER_IRQHandler
        0x080008cc:    b430        0.      PUSH     {r4,r5}
        0x080008ce:    6803        .h      LDR      r3,[r0,#0]
        0x080008d0:    699a        .i      LDR      r2,[r3,#0x18]
        0x080008d2:    6819        .h      LDR      r1,[r3,#0]
        0x080008d4:    43d2        .C      MVNS     r2,r2
        0x080008d6:    05d4        ..      LSLS     r4,r2,#23
        0x080008d8:    d409        ..      BMI      0x80008ee ; HAL_I2C_ER_IRQHandler + 34
        0x080008da:    43cc        .C      MVNS     r4,r1
        0x080008dc:    0624        $.      LSLS     r4,r4,#24
        0x080008de:    d406        ..      BMI      0x80008ee ; HAL_I2C_ER_IRQHandler + 34
        0x080008e0:    6c44        Dl      LDR      r4,[r0,#0x44]
        0x080008e2:    f0440401    D...    ORR      r4,r4,#1
        0x080008e6:    6444        Dd      STR      r4,[r0,#0x44]
        0x080008e8:    f44f7480    O..t    MOV      r4,#0x100
        0x080008ec:    61dc        .a      STR      r4,[r3,#0x1c]
        0x080008ee:    0553        S.      LSLS     r3,r2,#21
        0x080008f0:    d40a        ..      BMI      0x8000908 ; HAL_I2C_ER_IRQHandler + 60
        0x080008f2:    43cb        .C      MVNS     r3,r1
        0x080008f4:    061b        ..      LSLS     r3,r3,#24
        0x080008f6:    d407        ..      BMI      0x8000908 ; HAL_I2C_ER_IRQHandler + 60
        0x080008f8:    6c43        Cl      LDR      r3,[r0,#0x44]
        0x080008fa:    f0430308    C...    ORR      r3,r3,#8
        0x080008fe:    6443        Cd      STR      r3,[r0,#0x44]
        0x08000900:    6804        .h      LDR      r4,[r0,#0]
        0x08000902:    f44f6380    O..c    MOV      r3,#0x400
        0x08000906:    61e3        .a      STR      r3,[r4,#0x1c]
        0x08000908:    0592        ..      LSLS     r2,r2,#22
        0x0800090a:    d40a        ..      BMI      0x8000922 ; HAL_I2C_ER_IRQHandler + 86
        0x0800090c:    43c9        .C      MVNS     r1,r1
        0x0800090e:    0609        ..      LSLS     r1,r1,#24
        0x08000910:    d407        ..      BMI      0x8000922 ; HAL_I2C_ER_IRQHandler + 86
        0x08000912:    6c41        Al      LDR      r1,[r0,#0x44]
        0x08000914:    f0410102    A...    ORR      r1,r1,#2
        0x08000918:    6441        Ad      STR      r1,[r0,#0x44]
        0x0800091a:    6802        .h      LDR      r2,[r0,#0]
        0x0800091c:    f44f7100    O..q    MOV      r1,#0x200
        0x08000920:    61d1        .a      STR      r1,[r2,#0x1c]
        0x08000922:    6c41        Al      LDR      r1,[r0,#0x44]
        0x08000924:    f0110f0b    ....    TST      r1,#0xb
        0x08000928:    d002        ..      BEQ      0x8000930 ; HAL_I2C_ER_IRQHandler + 100
        0x0800092a:    bc30        0.      POP      {r4,r5}
        0x0800092c:    f001ba8a    ....    B.W      I2C_ITError ; 0x8001e44
        0x08000930:    bc30        0.      POP      {r4,r5}
        0x08000932:    4770        pG      BX       lr
    i.HAL_I2C_EV_IRQHandler
    HAL_I2C_EV_IRQHandler
        0x08000934:    6802        .h      LDR      r2,[r0,#0]
        0x08000936:    6991        .i      LDR      r1,[r2,#0x18]
        0x08000938:    6812        .h      LDR      r2,[r2,#0]
        0x0800093a:    6b43        Ck      LDR      r3,[r0,#0x34]
        0x0800093c:    2b00        .+      CMP      r3,#0
        0x0800093e:    d000        ..      BEQ      0x8000942 ; HAL_I2C_EV_IRQHandler + 14
        0x08000940:    4718        .G      BX       r3
        0x08000942:    4770        pG      BX       lr
    i.HAL_I2C_ErrorCallback
    HAL_I2C_ErrorCallback
        0x08000944:    4770        pG      BX       lr
        0x08000946:    0000        ..      MOVS     r0,r0
    i.HAL_I2C_Init
    HAL_I2C_Init
        0x08000948:    b570        p.      PUSH     {r4-r6,lr}
        0x0800094a:    0004        ..      MOVS     r4,r0
        0x0800094c:    d004        ..      BEQ      0x8000958 ; HAL_I2C_Init + 16
        0x0800094e:    f8940041    ..A.    LDRB     r0,[r4,#0x41]
        0x08000952:    2500        .%      MOVS     r5,#0
        0x08000954:    b110        ..      CBZ      r0,0x800095c ; HAL_I2C_Init + 20
        0x08000956:    e006        ..      B        0x8000966 ; HAL_I2C_Init + 30
        0x08000958:    2001        .       MOVS     r0,#1
        0x0800095a:    bd70        p.      POP      {r4-r6,pc}
        0x0800095c:    f8845040    ..@P    STRB     r5,[r4,#0x40]
        0x08000960:    4620         F      MOV      r0,r4
        0x08000962:    f000f99d    ....    BL       HAL_I2C_MspInit ; 0x8000ca0
        0x08000966:    2024        $       MOVS     r0,#0x24
        0x08000968:    f8840041    ..A.    STRB     r0,[r4,#0x41]
        0x0800096c:    6820         h      LDR      r0,[r4,#0]
        0x0800096e:    6801        .h      LDR      r1,[r0,#0]
        0x08000970:    f0210101    !...    BIC      r1,r1,#1
        0x08000974:    6001        .`      STR      r1,[r0,#0]
        0x08000976:    6860        `h      LDR      r0,[r4,#4]
        0x08000978:    6821        !h      LDR      r1,[r4,#0]
        0x0800097a:    f0206070     .p`    BIC      r0,r0,#0xf000000
        0x0800097e:    6108        .a      STR      r0,[r1,#0x10]
        0x08000980:    6820         h      LDR      r0,[r4,#0]
        0x08000982:    6881        .h      LDR      r1,[r0,#8]
        0x08000984:    f4214100    !..A    BIC      r1,r1,#0x8000
        0x08000988:    6081        .`      STR      r1,[r0,#8]
        0x0800098a:    68e0        .h      LDR      r0,[r4,#0xc]
        0x0800098c:    2801        .(      CMP      r0,#1
        0x0800098e:    68a0        .h      LDR      r0,[r4,#8]
        0x08000990:    d007        ..      BEQ      0x80009a2 ; HAL_I2C_Init + 90
        0x08000992:    f4404004    @..@    ORR      r0,r0,#0x8400
        0x08000996:    6821        !h      LDR      r1,[r4,#0]
        0x08000998:    6088        .`      STR      r0,[r1,#8]
        0x0800099a:    68e0        .h      LDR      r0,[r4,#0xc]
        0x0800099c:    2802        .(      CMP      r0,#2
        0x0800099e:    d003        ..      BEQ      0x80009a8 ; HAL_I2C_Init + 96
        0x080009a0:    e006        ..      B        0x80009b0 ; HAL_I2C_Init + 104
        0x080009a2:    f4404000    @..@    ORR      r0,r0,#0x8000
        0x080009a6:    e7f6        ..      B        0x8000996 ; HAL_I2C_Init + 78
        0x080009a8:    6821        !h      LDR      r1,[r4,#0]
        0x080009aa:    f44f6000    O..`    MOV      r0,#0x800
        0x080009ae:    6048        H`      STR      r0,[r1,#4]
        0x080009b0:    6820         h      LDR      r0,[r4,#0]
        0x080009b2:    6841        Ah      LDR      r1,[r0,#4]
        0x080009b4:    4a11        .J      LDR      r2,[pc,#68] ; [0x80009fc] = 0x2008000
        0x080009b6:    4311        .C      ORRS     r1,r1,r2
        0x080009b8:    6041        A`      STR      r1,[r0,#4]
        0x080009ba:    6820         h      LDR      r0,[r4,#0]
        0x080009bc:    68c1        .h      LDR      r1,[r0,#0xc]
        0x080009be:    f4214100    !..A    BIC      r1,r1,#0x8000
        0x080009c2:    60c1        .`      STR      r1,[r0,#0xc]
        0x080009c4:    e9d40104    ....    LDRD     r0,r1,[r4,#0x10]
        0x080009c8:    4308        .C      ORRS     r0,r0,r1
        0x080009ca:    69a1        .i      LDR      r1,[r4,#0x18]
        0x080009cc:    ea402001    @..     ORR      r0,r0,r1,LSL #8
        0x080009d0:    6821        !h      LDR      r1,[r4,#0]
        0x080009d2:    60c8        .`      STR      r0,[r1,#0xc]
        0x080009d4:    e9d40107    ....    LDRD     r0,r1,[r4,#0x1c]
        0x080009d8:    4308        .C      ORRS     r0,r0,r1
        0x080009da:    6821        !h      LDR      r1,[r4,#0]
        0x080009dc:    6008        .`      STR      r0,[r1,#0]
        0x080009de:    6820         h      LDR      r0,[r4,#0]
        0x080009e0:    6801        .h      LDR      r1,[r0,#0]
        0x080009e2:    f0410101    A...    ORR      r1,r1,#1
        0x080009e6:    6001        .`      STR      r1,[r0,#0]
        0x080009e8:    6465        ed      STR      r5,[r4,#0x44]
        0x080009ea:    2020                MOVS     r0,#0x20
        0x080009ec:    f8840041    ..A.    STRB     r0,[r4,#0x41]
        0x080009f0:    6325        %c      STR      r5,[r4,#0x30]
        0x080009f2:    f8845042    ..BP    STRB     r5,[r4,#0x42]
        0x080009f6:    2000        .       MOVS     r0,#0
        0x080009f8:    bd70        p.      POP      {r4-r6,pc}
    $d
        0x080009fa:    0000        ..      DCW    0
        0x080009fc:    02008000    ....    DCD    33587200
    $t
    i.HAL_I2C_ListenCpltCallback
    HAL_I2C_ListenCpltCallback
        0x08000a00:    4770        pG      BX       lr
    i.HAL_I2C_MasterRxCpltCallback
    HAL_I2C_MasterRxCpltCallback
        0x08000a02:    4770        pG      BX       lr
    i.HAL_I2C_MasterTxCpltCallback
    HAL_I2C_MasterTxCpltCallback
        0x08000a04:    4770        pG      BX       lr
        0x08000a06:    0000        ..      MOVS     r0,r0
    i.HAL_I2C_MemRxCpltCallback
    HAL_I2C_MemRxCpltCallback
        0x08000a08:    b500        ..      PUSH     {lr}
        0x08000a0a:    4915        .I      LDR      r1,[pc,#84] ; [0x8000a60] = 0x200000fc
        0x08000a0c:    6800        .h      LDR      r0,[r0,#0]
        0x08000a0e:    6809        .h      LDR      r1,[r1,#0]
        0x08000a10:    4288        .B      CMP      r0,r1
        0x08000a12:    d124        $.      BNE      0x8000a5e ; HAL_I2C_MemRxCpltCallback + 86
        0x08000a14:    4a13        .J      LDR      r2,[pc,#76] ; [0x8000a64] = 0x20000028
        0x08000a16:    2001        .       MOVS     r0,#1
        0x08000a18:    7410        .t      STRB     r0,[r2,#0x10]
        0x08000a1a:    f1a20314    ....    SUB      r3,r2,#0x14
        0x08000a1e:    7818        .x      LDRB     r0,[r3,#0]
        0x08000a20:    f7fffc60    ..`.    BL       BCD2DEC ; 0x80002e4
        0x08000a24:    7190        .q      STRB     r0,[r2,#6]
        0x08000a26:    7858        Xx      LDRB     r0,[r3,#1]
        0x08000a28:    f7fffc5c    ..\.    BL       BCD2DEC ; 0x80002e4
        0x08000a2c:    7150        Pq      STRB     r0,[r2,#5]
        0x08000a2e:    7898        .x      LDRB     r0,[r3,#2]
        0x08000a30:    f7fffc58    ..X.    BL       BCD2DEC ; 0x80002e4
        0x08000a34:    7110        .q      STRB     r0,[r2,#4]
        0x08000a36:    78d8        .x      LDRB     r0,[r3,#3]
        0x08000a38:    f7fffc54    ..T.    BL       BCD2DEC ; 0x80002e4
        0x08000a3c:    7090        .p      STRB     r0,[r2,#2]
        0x08000a3e:    7918        .y      LDRB     r0,[r3,#4]
        0x08000a40:    f7fffc50    ..P.    BL       BCD2DEC ; 0x80002e4
        0x08000a44:    70d0        .p      STRB     r0,[r2,#3]
        0x08000a46:    7958        Xy      LDRB     r0,[r3,#5]
        0x08000a48:    f7fffc4c    ..L.    BL       BCD2DEC ; 0x80002e4
        0x08000a4c:    7050        Pp      STRB     r0,[r2,#1]
        0x08000a4e:    7998        .y      LDRB     r0,[r3,#6]
        0x08000a50:    f7fffc48    ..H.    BL       BCD2DEC ; 0x80002e4
        0x08000a54:    7010        .p      STRB     r0,[r2,#0]
        0x08000a56:    7b98        .{      LDRB     r0,[r3,#0xe]
        0x08000a58:    7250        Pr      STRB     r0,[r2,#9]
        0x08000a5a:    7bd8        .{      LDRB     r0,[r3,#0xf]
        0x08000a5c:    7290        .r      STRB     r0,[r2,#0xa]
        0x08000a5e:    bd00        ..      POP      {pc}
    $d
        0x08000a60:    200000fc    ...     DCD    536871164
        0x08000a64:    20000028    (..     DCD    536870952
    $t
    i.HAL_I2C_MemTxCpltCallback
    HAL_I2C_MemTxCpltCallback
        0x08000a68:    4770        pG      BX       lr
        0x08000a6a:    0000        ..      MOVS     r0,r0
    i.HAL_I2C_Mem_Read_IT
    HAL_I2C_Mem_Read_IT
        0x08000a6c:    e92d47fc    -..G    PUSH     {r2-r10,lr}
        0x08000a70:    4604        .F      MOV      r4,r0
        0x08000a72:    e9dd760a    ...v    LDRD     r7,r6,[sp,#0x28]
        0x08000a76:    f8900041    ..A.    LDRB     r0,[r0,#0x41]
        0x08000a7a:    4698        .F      MOV      r8,r3
        0x08000a7c:    4691        .F      MOV      r9,r2
        0x08000a7e:    468a        .F      MOV      r10,r1
        0x08000a80:    2820         (      CMP      r0,#0x20
        0x08000a82:    d150        P.      BNE      0x8000b26 ; HAL_I2C_Mem_Read_IT + 186
        0x08000a84:    b33f        ?.      CBZ      r7,0x8000ad6 ; HAL_I2C_Mem_Read_IT + 106
        0x08000a86:    b336        6.      CBZ      r6,0x8000ad6 ; HAL_I2C_Mem_Read_IT + 106
        0x08000a88:    6820         h      LDR      r0,[r4,#0]
        0x08000a8a:    6980        .i      LDR      r0,[r0,#0x18]
        0x08000a8c:    43c0        .C      MVNS     r0,r0
        0x08000a8e:    0400        ..      LSLS     r0,r0,#16
        0x08000a90:    d549        I.      BPL      0x8000b26 ; HAL_I2C_Mem_Read_IT + 186
        0x08000a92:    f8940040    ..@.    LDRB     r0,[r4,#0x40]
        0x08000a96:    2801        .(      CMP      r0,#1
        0x08000a98:    d045        E.      BEQ      0x8000b26 ; HAL_I2C_Mem_Read_IT + 186
        0x08000a9a:    2001        .       MOVS     r0,#1
        0x08000a9c:    f8840040    ..@.    STRB     r0,[r4,#0x40]
        0x08000aa0:    3424        $4      ADDS     r4,r4,#0x24
        0x08000aa2:    f7fffeb7    ....    BL       HAL_GetTick ; 0x8000814
        0x08000aa6:    2122        "!      MOVS     r1,#0x22
        0x08000aa8:    7761        aw      STRB     r1,[r4,#0x1d]
        0x08000aaa:    2140        @!      MOVS     r1,#0x40
        0x08000aac:    77a1        .w      STRB     r1,[r4,#0x1e]
        0x08000aae:    2500        .%      MOVS     r5,#0
        0x08000ab0:    6225        %b      STR      r5,[r4,#0x20]
        0x08000ab2:    f8447b06    D..{    STR      r7,[r4],#6
        0x08000ab6:    8026        &.      STRH     r6,[r4,#0]
        0x08000ab8:    491c        .I      LDR      r1,[pc,#112] ; [0x8000b2c] = 0xffff0000
        0x08000aba:    f8c41002    ....    STR      r1,[r4,#2]
        0x08000abe:    491c        .I      LDR      r1,[pc,#112] ; [0x8000b30] = 0x800235d
        0x08000ac0:    f8c4100a    ....    STR      r1,[r4,#0xa]
        0x08000ac4:    f834192a    4.*.    LDRH     r1,[r4],#-0x2a
        0x08000ac8:    29ff        .)      CMP      r1,#0xff
        0x08000aca:    d908        ..      BLS      0x8000ade ; HAL_I2C_Mem_Read_IT + 114
        0x08000acc:    21ff        .!      MOVS     r1,#0xff
        0x08000ace:    8521        !.      STRH     r1,[r4,#0x28]
        0x08000ad0:    f04f7680    O..v    MOV      r6,#0x1000000
        0x08000ad4:    e007        ..      B        0x8000ae6 ; HAL_I2C_Mem_Read_IT + 122
        0x08000ad6:    f44f7000    O..p    MOV      r0,#0x200
        0x08000ada:    6460        `d      STR      r0,[r4,#0x44]
        0x08000adc:    e00f        ..      B        0x8000afe ; HAL_I2C_Mem_Read_IT + 146
        0x08000ade:    8d61        a.      LDRH     r1,[r4,#0x2a]
        0x08000ae0:    8521        !.      STRH     r1,[r4,#0x28]
        0x08000ae2:    f04f7600    O..v    MOV      r6,#0x2000000
        0x08000ae6:    2119        .!      MOVS     r1,#0x19
        0x08000ae8:    e9cd1000    ....    STRD     r1,r0,[sp,#0]
        0x08000aec:    4643        CF      MOV      r3,r8
        0x08000aee:    464a        JF      MOV      r2,r9
        0x08000af0:    4651        QF      MOV      r1,r10
        0x08000af2:    4620         F      MOV      r0,r4
        0x08000af4:    f001fcc6    ....    BL       I2C_RequestMemoryRead ; 0x8002484
        0x08000af8:    b120         .      CBZ      r0,0x8000b04 ; HAL_I2C_Mem_Read_IT + 152
        0x08000afa:    f8845040    ..@P    STRB     r5,[r4,#0x40]
        0x08000afe:    2001        .       MOVS     r0,#1
        0x08000b00:    f000b81a    ....    B.W      0x8000b38 ; HAL_I2C_Mem_Read_IT + 204
        0x08000b04:    480b        .H      LDR      r0,[pc,#44] ; [0x8000b34] = 0x80002400
        0x08000b06:    9000        ..      STR      r0,[sp,#0]
        0x08000b08:    f8942028    ..(     LDRB     r2,[r4,#0x28]
        0x08000b0c:    4633        3F      MOV      r3,r6
        0x08000b0e:    4651        QF      MOV      r1,r10
        0x08000b10:    4620         F      MOV      r0,r4
        0x08000b12:    f001fe1d    ....    BL       I2C_TransferConfig ; 0x8002750
        0x08000b16:    f8845040    ..@P    STRB     r5,[r4,#0x40]
        0x08000b1a:    2102        .!      MOVS     r1,#2
        0x08000b1c:    4620         F      MOV      r0,r4
        0x08000b1e:    f001f90d    ....    BL       I2C_Enable_IRQ ; 0x8001d3c
        0x08000b22:    2000        .       MOVS     r0,#0
        0x08000b24:    e7ec        ..      B        0x8000b00 ; HAL_I2C_Mem_Read_IT + 148
        0x08000b26:    2002        .       MOVS     r0,#2
        0x08000b28:    e7ea        ..      B        0x8000b00 ; HAL_I2C_Mem_Read_IT + 148
    $d
        0x08000b2a:    0000        ..      DCW    0
        0x08000b2c:    ffff0000    ....    DCD    4294901760
        0x08000b30:    0800235d    ]#..    DCD    134226781
        0x08000b34:    80002400    .$..    DCD    2147492864
    $t
        0x08000b38:    bc0c        ..      POP      {r2,r3}
        0x08000b3a:    e8bd87f0    ....    POP      {r4-r10,pc}
        0x08000b3e:    0000        ..      MOVS     r0,r0
    i.HAL_I2C_Mem_Write
    HAL_I2C_Mem_Write
        0x08000b40:    e92d4fff    -..O    PUSH     {r0-r11,lr}
        0x08000b44:    b083        ..      SUB      sp,sp,#0xc
        0x08000b46:    4604        .F      MOV      r4,r0
        0x08000b48:    e9dd8710    ....    LDRD     r8,r7,[sp,#0x40]
        0x08000b4c:    f8900041    ..A.    LDRB     r0,[r0,#0x41]
        0x08000b50:    f8dd9048    ..H.    LDR      r9,[sp,#0x48]
        0x08000b54:    469a        .F      MOV      r10,r3
        0x08000b56:    4693        .F      MOV      r11,r2
        0x08000b58:    2820         (      CMP      r0,#0x20
        0x08000b5a:    d171        q.      BNE      0x8000c40 ; HAL_I2C_Mem_Write + 256
        0x08000b5c:    ea5f0008    _...    MOVS     r0,r8
        0x08000b60:    d014        ..      BEQ      0x8000b8c ; HAL_I2C_Mem_Write + 76
        0x08000b62:    b19f        ..      CBZ      r7,0x8000b8c ; HAL_I2C_Mem_Write + 76
        0x08000b64:    f8940040    ..@.    LDRB     r0,[r4,#0x40]
        0x08000b68:    2801        .(      CMP      r0,#1
        0x08000b6a:    d069        i.      BEQ      0x8000c40 ; HAL_I2C_Mem_Write + 256
        0x08000b6c:    2001        .       MOVS     r0,#1
        0x08000b6e:    f8840040    ..@.    STRB     r0,[r4,#0x40]
        0x08000b72:    f7fffe4f    ..O.    BL       HAL_GetTick ; 0x8000814
        0x08000b76:    4606        .F      MOV      r6,r0
        0x08000b78:    2201        ."      MOVS     r2,#1
        0x08000b7a:    9000        ..      STR      r0,[sp,#0]
        0x08000b7c:    2319        .#      MOVS     r3,#0x19
        0x08000b7e:    03d1        ..      LSLS     r1,r2,#15
        0x08000b80:    4620         F      MOV      r0,r4
        0x08000b82:    f001fdfb    ....    BL       I2C_WaitOnFlagUntilTimeout ; 0x800277c
        0x08000b86:    2800        .(      CMP      r0,#0
        0x08000b88:    d16e        n.      BNE      0x8000c68 ; HAL_I2C_Mem_Write + 296
        0x08000b8a:    e003        ..      B        0x8000b94 ; HAL_I2C_Mem_Write + 84
        0x08000b8c:    f44f7000    O..p    MOV      r0,#0x200
        0x08000b90:    6460        `d      STR      r0,[r4,#0x44]
        0x08000b92:    e069        i.      B        0x8000c68 ; HAL_I2C_Mem_Write + 296
        0x08000b94:    2021        !       MOVS     r0,#0x21
        0x08000b96:    f8840041    ..A.    STRB     r0,[r4,#0x41]
        0x08000b9a:    2040        @       MOVS     r0,#0x40
        0x08000b9c:    f8840042    ..B.    STRB     r0,[r4,#0x42]
        0x08000ba0:    2500        .%      MOVS     r5,#0
        0x08000ba2:    6465        ed      STR      r5,[r4,#0x44]
        0x08000ba4:    f8c48024    ..$.    STR      r8,[r4,#0x24]
        0x08000ba8:    8567        g.      STRH     r7,[r4,#0x2a]
        0x08000baa:    6365        ec      STR      r5,[r4,#0x34]
        0x08000bac:    e9cd9600    ....    STRD     r9,r6,[sp,#0]
        0x08000bb0:    4653        SF      MOV      r3,r10
        0x08000bb2:    465a        ZF      MOV      r2,r11
        0x08000bb4:    4620         F      MOV      r0,r4
        0x08000bb6:    9904        ..      LDR      r1,[sp,#0x10]
        0x08000bb8:    f001fc96    ....    BL       I2C_RequestMemoryWrite ; 0x80024e8
        0x08000bbc:    b110        ..      CBZ      r0,0x8000bc4 ; HAL_I2C_Mem_Write + 132
        0x08000bbe:    f8845040    ..@P    STRB     r5,[r4,#0x40]
        0x08000bc2:    e051        Q.      B        0x8000c68 ; HAL_I2C_Mem_Write + 296
        0x08000bc4:    8d60        `.      LDRH     r0,[r4,#0x2a]
        0x08000bc6:    27ff        .'      MOVS     r7,#0xff
        0x08000bc8:    f04f7880    O..x    MOV      r8,#0x1000000
        0x08000bcc:    f04f7a00    O..z    MOV      r10,#0x2000000
        0x08000bd0:    28ff        .(      CMP      r0,#0xff
        0x08000bd2:    d904        ..      BLS      0x8000bde ; HAL_I2C_Mem_Write + 158
        0x08000bd4:    8527        '.      STRH     r7,[r4,#0x28]
        0x08000bd6:    463a        :F      MOV      r2,r7
        0x08000bd8:    4643        CF      MOV      r3,r8
        0x08000bda:    9500        ..      STR      r5,[sp,#0]
        0x08000bdc:    e005        ..      B        0x8000bea ; HAL_I2C_Mem_Write + 170
        0x08000bde:    8d60        `.      LDRH     r0,[r4,#0x2a]
        0x08000be0:    8520         .      STRH     r0,[r4,#0x28]
        0x08000be2:    9500        ..      STR      r5,[sp,#0]
        0x08000be4:    f8942028    ..(     LDRB     r2,[r4,#0x28]
        0x08000be8:    4653        SF      MOV      r3,r10
        0x08000bea:    4620         F      MOV      r0,r4
        0x08000bec:    9904        ..      LDR      r1,[sp,#0x10]
        0x08000bee:    f001fdaf    ....    BL       I2C_TransferConfig ; 0x8002750
        0x08000bf2:    4632        2F      MOV      r2,r6
        0x08000bf4:    4649        IF      MOV      r1,r9
        0x08000bf6:    4620         F      MOV      r0,r4
        0x08000bf8:    f001fe12    ....    BL       I2C_WaitOnTXISFlagUntilTimeout ; 0x8002820
        0x08000bfc:    bba0        ..      CBNZ     r0,0x8000c68 ; HAL_I2C_Mem_Write + 296
        0x08000bfe:    6a60        `j      LDR      r0,[r4,#0x24]
        0x08000c00:    6821        !h      LDR      r1,[r4,#0]
        0x08000c02:    7800        .x      LDRB     r0,[r0,#0]
        0x08000c04:    6288        .b      STR      r0,[r1,#0x28]
        0x08000c06:    6a60        `j      LDR      r0,[r4,#0x24]
        0x08000c08:    1c40        @.      ADDS     r0,r0,#1
        0x08000c0a:    6260        `b      STR      r0,[r4,#0x24]
        0x08000c0c:    8d60        `.      LDRH     r0,[r4,#0x2a]
        0x08000c0e:    1e40        @.      SUBS     r0,r0,#1
        0x08000c10:    8560        `.      STRH     r0,[r4,#0x2a]
        0x08000c12:    8d20         .      LDRH     r0,[r4,#0x28]
        0x08000c14:    1e40        @.      SUBS     r0,r0,#1
        0x08000c16:    b280        ..      UXTH     r0,r0
        0x08000c18:    8520         .      STRH     r0,[r4,#0x28]
        0x08000c1a:    8d61        a.      LDRH     r1,[r4,#0x2a]
        0x08000c1c:    b1d9        ..      CBZ      r1,0x8000c56 ; HAL_I2C_Mem_Write + 278
        0x08000c1e:    b9d0        ..      CBNZ     r0,0x8000c56 ; HAL_I2C_Mem_Write + 278
        0x08000c20:    464b        KF      MOV      r3,r9
        0x08000c22:    2200        ."      MOVS     r2,#0
        0x08000c24:    2180        .!      MOVS     r1,#0x80
        0x08000c26:    4620         F      MOV      r0,r4
        0x08000c28:    9600        ..      STR      r6,[sp,#0]
        0x08000c2a:    f001fda7    ....    BL       I2C_WaitOnFlagUntilTimeout ; 0x800277c
        0x08000c2e:    b9d8        ..      CBNZ     r0,0x8000c68 ; HAL_I2C_Mem_Write + 296
        0x08000c30:    8d60        `.      LDRH     r0,[r4,#0x2a]
        0x08000c32:    28ff        .(      CMP      r0,#0xff
        0x08000c34:    d905        ..      BLS      0x8000c42 ; HAL_I2C_Mem_Write + 258
        0x08000c36:    8527        '.      STRH     r7,[r4,#0x28]
        0x08000c38:    463a        :F      MOV      r2,r7
        0x08000c3a:    4643        CF      MOV      r3,r8
        0x08000c3c:    9500        ..      STR      r5,[sp,#0]
        0x08000c3e:    e006        ..      B        0x8000c4e ; HAL_I2C_Mem_Write + 270
        0x08000c40:    e026        &.      B        0x8000c90 ; HAL_I2C_Mem_Write + 336
        0x08000c42:    8d60        `.      LDRH     r0,[r4,#0x2a]
        0x08000c44:    8520         .      STRH     r0,[r4,#0x28]
        0x08000c46:    9500        ..      STR      r5,[sp,#0]
        0x08000c48:    f8942028    ..(     LDRB     r2,[r4,#0x28]
        0x08000c4c:    4653        SF      MOV      r3,r10
        0x08000c4e:    4620         F      MOV      r0,r4
        0x08000c50:    9904        ..      LDR      r1,[sp,#0x10]
        0x08000c52:    f001fd7d    ..}.    BL       I2C_TransferConfig ; 0x8002750
        0x08000c56:    8d60        `.      LDRH     r0,[r4,#0x2a]
        0x08000c58:    2800        .(      CMP      r0,#0
        0x08000c5a:    d1ca        ..      BNE      0x8000bf2 ; HAL_I2C_Mem_Write + 178
        0x08000c5c:    4632        2F      MOV      r2,r6
        0x08000c5e:    4649        IF      MOV      r1,r9
        0x08000c60:    4620         F      MOV      r0,r4
        0x08000c62:    f001fdb7    ....    BL       I2C_WaitOnSTOPFlagUntilTimeout ; 0x80027d4
        0x08000c66:    b118        ..      CBZ      r0,0x8000c70 ; HAL_I2C_Mem_Write + 304
        0x08000c68:    2001        .       MOVS     r0,#1
        0x08000c6a:    b007        ..      ADD      sp,sp,#0x1c
        0x08000c6c:    f000b814    ....    B.W      0x8000c98 ; HAL_I2C_Mem_Write + 344
        0x08000c70:    6820         h      LDR      r0,[r4,#0]
        0x08000c72:    2120         !      MOVS     r1,#0x20
        0x08000c74:    61c1        .a      STR      r1,[r0,#0x1c]
        0x08000c76:    6820         h      LDR      r0,[r4,#0]
        0x08000c78:    6842        Bh      LDR      r2,[r0,#4]
        0x08000c7a:    4b06        .K      LDR      r3,[pc,#24] ; [0x8000c94] = 0xfe00e800
        0x08000c7c:    401a        .@      ANDS     r2,r2,r3
        0x08000c7e:    6042        B`      STR      r2,[r0,#4]
        0x08000c80:    f8841041    ..A.    STRB     r1,[r4,#0x41]
        0x08000c84:    f8845042    ..BP    STRB     r5,[r4,#0x42]
        0x08000c88:    f8845040    ..@P    STRB     r5,[r4,#0x40]
        0x08000c8c:    2000        .       MOVS     r0,#0
        0x08000c8e:    e7ec        ..      B        0x8000c6a ; HAL_I2C_Mem_Write + 298
        0x08000c90:    2002        .       MOVS     r0,#2
        0x08000c92:    e7ea        ..      B        0x8000c6a ; HAL_I2C_Mem_Write + 298
    $d
        0x08000c94:    fe00e800    ....    DCD    4261472256
    $t
        0x08000c98:    bc30        0.      POP      {r4,r5}
        0x08000c9a:    e8bd8fc0    ....    POP      {r6-r11,pc}
        0x08000c9e:    0000        ..      MOVS     r0,r0
    i.HAL_I2C_MspInit
    HAL_I2C_MspInit
        0x08000ca0:    b510        ..      PUSH     {r4,lr}
        0x08000ca2:    b086        ..      SUB      sp,sp,#0x18
        0x08000ca4:    4604        .F      MOV      r4,r0
        0x08000ca6:    2114        .!      MOVS     r1,#0x14
        0x08000ca8:    4668        hF      MOV      r0,sp
        0x08000caa:    f7fffac8    ....    BL       __aeabi_memclr ; 0x800023e
        0x08000cae:    491b        .I      LDR      r1,[pc,#108] ; [0x8000d1c] = 0x40005800
        0x08000cb0:    6820         h      LDR      r0,[r4,#0]
        0x08000cb2:    4288        .B      CMP      r0,r1
        0x08000cb4:    d12f        /.      BNE      0x8000d16 ; HAL_I2C_MspInit + 118
        0x08000cb6:    4c1a        .L      LDR      r4,[pc,#104] ; [0x8000d20] = 0x40021000
        0x08000cb8:    6ce0        .l      LDR      r0,[r4,#0x4c]
        0x08000cba:    f0400002    @...    ORR      r0,r0,#2
        0x08000cbe:    64e0        .d      STR      r0,[r4,#0x4c]
        0x08000cc0:    6ce0        .l      LDR      r0,[r4,#0x4c]
        0x08000cc2:    4669        iF      MOV      r1,sp
        0x08000cc4:    f0000002    ....    AND      r0,r0,#2
        0x08000cc8:    9005        ..      STR      r0,[sp,#0x14]
        0x08000cca:    f44f6040    O.@`    MOV      r0,#0xc00
        0x08000cce:    9000        ..      STR      r0,[sp,#0]
        0x08000cd0:    2012        .       MOVS     r0,#0x12
        0x08000cd2:    9001        ..      STR      r0,[sp,#4]
        0x08000cd4:    2001        .       MOVS     r0,#1
        0x08000cd6:    9002        ..      STR      r0,[sp,#8]
        0x08000cd8:    2003        .       MOVS     r0,#3
        0x08000cda:    9003        ..      STR      r0,[sp,#0xc]
        0x08000cdc:    2004        .       MOVS     r0,#4
        0x08000cde:    9004        ..      STR      r0,[sp,#0x10]
        0x08000ce0:    4810        .H      LDR      r0,[pc,#64] ; [0x8000d24] = 0x48000400
        0x08000ce2:    f7fffcb1    ....    BL       HAL_GPIO_Init ; 0x8000648
        0x08000ce6:    6da0        .m      LDR      r0,[r4,#0x58]
        0x08000ce8:    f4400080    @...    ORR      r0,r0,#0x400000
        0x08000cec:    65a0        .e      STR      r0,[r4,#0x58]
        0x08000cee:    6da0        .m      LDR      r0,[r4,#0x58]
        0x08000cf0:    2200        ."      MOVS     r2,#0
        0x08000cf2:    f4000080    ....    AND      r0,r0,#0x400000
        0x08000cf6:    9005        ..      STR      r0,[sp,#0x14]
        0x08000cf8:    4611        .F      MOV      r1,r2
        0x08000cfa:    2021        !       MOVS     r0,#0x21
        0x08000cfc:    f000f87a    ..z.    BL       HAL_NVIC_SetPriority ; 0x8000df4
        0x08000d00:    2021        !       MOVS     r0,#0x21
        0x08000d02:    f000f869    ..i.    BL       HAL_NVIC_EnableIRQ ; 0x8000dd8
        0x08000d06:    2200        ."      MOVS     r2,#0
        0x08000d08:    4611        .F      MOV      r1,r2
        0x08000d0a:    2022        "       MOVS     r0,#0x22
        0x08000d0c:    f000f872    ..r.    BL       HAL_NVIC_SetPriority ; 0x8000df4
        0x08000d10:    2022        "       MOVS     r0,#0x22
        0x08000d12:    f000f861    ..a.    BL       HAL_NVIC_EnableIRQ ; 0x8000dd8
        0x08000d16:    b006        ..      ADD      sp,sp,#0x18
        0x08000d18:    bd10        ..      POP      {r4,pc}
    $d
        0x08000d1a:    0000        ..      DCW    0
        0x08000d1c:    40005800    .X.@    DCD    1073764352
        0x08000d20:    40021000    ...@    DCD    1073876992
        0x08000d24:    48000400    ...H    DCD    1207960576
    $t
    i.HAL_I2C_SlaveRxCpltCallback
    HAL_I2C_SlaveRxCpltCallback
        0x08000d28:    4770        pG      BX       lr
    i.HAL_I2C_SlaveTxCpltCallback
    HAL_I2C_SlaveTxCpltCallback
        0x08000d2a:    4770        pG      BX       lr
    i.HAL_IncTick
    HAL_IncTick
        0x08000d2c:    4802        .H      LDR      r0,[pc,#8] ; [0x8000d38] = 0x20000000
        0x08000d2e:    6881        .h      LDR      r1,[r0,#8]
        0x08000d30:    6842        Bh      LDR      r2,[r0,#4]
        0x08000d32:    4411        .D      ADD      r1,r1,r2
        0x08000d34:    6081        .`      STR      r1,[r0,#8]
        0x08000d36:    4770        pG      BX       lr
    $d
        0x08000d38:    20000000    ...     DCD    536870912
    $t
    i.HAL_Init
    HAL_Init
        0x08000d3c:    4809        .H      LDR      r0,[pc,#36] ; [0x8000d64] = 0x40022000
        0x08000d3e:    b510        ..      PUSH     {r4,lr}
        0x08000d40:    6801        .h      LDR      r1,[r0,#0]
        0x08000d42:    2400        .$      MOVS     r4,#0
        0x08000d44:    f4417180    A..q    ORR      r1,r1,#0x100
        0x08000d48:    6001        .`      STR      r1,[r0,#0]
        0x08000d4a:    2003        .       MOVS     r0,#3
        0x08000d4c:    f000f872    ..r.    BL       HAL_NVIC_SetPriorityGrouping ; 0x8000e34
        0x08000d50:    2000        .       MOVS     r0,#0
        0x08000d52:    f000f809    ....    BL       HAL_InitTick ; 0x8000d68
        0x08000d56:    b108        ..      CBZ      r0,0x8000d5c ; HAL_Init + 32
        0x08000d58:    2401        .$      MOVS     r4,#1
        0x08000d5a:    e001        ..      B        0x8000d60 ; HAL_Init + 36
        0x08000d5c:    f000f826    ..&.    BL       HAL_MspInit ; 0x8000dac
        0x08000d60:    4620         F      MOV      r0,r4
        0x08000d62:    bd10        ..      POP      {r4,pc}
    $d
        0x08000d64:    40022000    . .@    DCD    1073881088
    $t
    i.HAL_InitTick
    HAL_InitTick
        0x08000d68:    b570        p.      PUSH     {r4-r6,lr}
        0x08000d6a:    4e0e        .N      LDR      r6,[pc,#56] ; [0x8000da4] = 0x20000000
        0x08000d6c:    4605        .F      MOV      r5,r0
        0x08000d6e:    2400        .$      MOVS     r4,#0
        0x08000d70:    6870        ph      LDR      r0,[r6,#4]
        0x08000d72:    b198        ..      CBZ      r0,0x8000d9c ; HAL_InitTick + 52
        0x08000d74:    f44f717a    O.zq    MOV      r1,#0x3e8
        0x08000d78:    fbb1f0f0    ....    UDIV     r0,r1,r0
        0x08000d7c:    490a        .I      LDR      r1,[pc,#40] ; [0x8000da8] = 0x2000000c
        0x08000d7e:    6809        .h      LDR      r1,[r1,#0]
        0x08000d80:    fbb1f0f0    ....    UDIV     r0,r1,r0
        0x08000d84:    f000fdf2    ....    BL       HAL_SYSTICK_Config ; 0x800196c
        0x08000d88:    b940        @.      CBNZ     r0,0x8000d9c ; HAL_InitTick + 52
        0x08000d8a:    2d10        .-      CMP      r5,#0x10
        0x08000d8c:    d206        ..      BCS      0x8000d9c ; HAL_InitTick + 52
        0x08000d8e:    2200        ."      MOVS     r2,#0
        0x08000d90:    4629        )F      MOV      r1,r5
        0x08000d92:    1e50        P.      SUBS     r0,r2,#1
        0x08000d94:    f000f82e    ....    BL       HAL_NVIC_SetPriority ; 0x8000df4
        0x08000d98:    6035        5`      STR      r5,[r6,#0]
        0x08000d9a:    e000        ..      B        0x8000d9e ; HAL_InitTick + 54
        0x08000d9c:    2401        .$      MOVS     r4,#1
        0x08000d9e:    4620         F      MOV      r0,r4
        0x08000da0:    bd70        p.      POP      {r4-r6,pc}
    $d
        0x08000da2:    0000        ..      DCW    0
        0x08000da4:    20000000    ...     DCD    536870912
        0x08000da8:    2000000c    ...     DCD    536870924
    $t
    i.HAL_MspInit
    HAL_MspInit
        0x08000dac:    4809        .H      LDR      r0,[pc,#36] ; [0x8000dd4] = 0x40021000
        0x08000dae:    b508        ..      PUSH     {r3,lr}
        0x08000db0:    6e01        .n      LDR      r1,[r0,#0x60]
        0x08000db2:    f0410101    A...    ORR      r1,r1,#1
        0x08000db6:    6601        .f      STR      r1,[r0,#0x60]
        0x08000db8:    6e01        .n      LDR      r1,[r0,#0x60]
        0x08000dba:    f0010101    ....    AND      r1,r1,#1
        0x08000dbe:    9100        ..      STR      r1,[sp,#0]
        0x08000dc0:    6d81        .m      LDR      r1,[r0,#0x58]
        0x08000dc2:    f0415180    A..Q    ORR      r1,r1,#0x10000000
        0x08000dc6:    6581        .e      STR      r1,[r0,#0x58]
        0x08000dc8:    6d80        .m      LDR      r0,[r0,#0x58]
        0x08000dca:    f0005080    ...P    AND      r0,r0,#0x10000000
        0x08000dce:    9000        ..      STR      r0,[sp,#0]
        0x08000dd0:    bd08        ..      POP      {r3,pc}
    $d
        0x08000dd2:    0000        ..      DCW    0
        0x08000dd4:    40021000    ...@    DCD    1073876992
    $t
    i.HAL_NVIC_EnableIRQ
    HAL_NVIC_EnableIRQ
        0x08000dd8:    2800        .(      CMP      r0,#0
        0x08000dda:    db09        ..      BLT      0x8000df0 ; HAL_NVIC_EnableIRQ + 24
        0x08000ddc:    f000021f    ....    AND      r2,r0,#0x1f
        0x08000de0:    2101        .!      MOVS     r1,#1
        0x08000de2:    4091        .@      LSLS     r1,r1,r2
        0x08000de4:    0940        @.      LSRS     r0,r0,#5
        0x08000de6:    0080        ..      LSLS     r0,r0,#2
        0x08000de8:    f10020e0    ...     ADD      r0,r0,#0xe000e000
        0x08000dec:    f8c01100    ....    STR      r1,[r0,#0x100]
        0x08000df0:    4770        pG      BX       lr
        0x08000df2:    0000        ..      MOVS     r0,r0
    i.HAL_NVIC_SetPriority
    HAL_NVIC_SetPriority
        0x08000df4:    b4f0        ..      PUSH     {r4-r7}
        0x08000df6:    4b0e        .K      LDR      r3,[pc,#56] ; [0x8000e30] = 0xe000ed0c
        0x08000df8:    681b        .h      LDR      r3,[r3,#0]
        0x08000dfa:    460c        .F      MOV      r4,r1
        0x08000dfc:    f3c32302    ...#    UBFX     r3,r3,#8,#3
        0x08000e00:    f1c30507    ....    RSB      r5,r3,#7
        0x08000e04:    2d04        .-      CMP      r5,#4
        0x08000e06:    d900        ..      BLS      0x8000e0a ; HAL_NVIC_SetPriority + 22
        0x08000e08:    2504        .%      MOVS     r5,#4
        0x08000e0a:    1d19        ..      ADDS     r1,r3,#4
        0x08000e0c:    2907        .)      CMP      r1,#7
        0x08000e0e:    d201        ..      BCS      0x8000e14 ; HAL_NVIC_SetPriority + 32
        0x08000e10:    2300        .#      MOVS     r3,#0
        0x08000e12:    e000        ..      B        0x8000e16 ; HAL_NVIC_SetPriority + 34
        0x08000e14:    1edb        ..      SUBS     r3,r3,#3
        0x08000e16:    2601        .&      MOVS     r6,#1
        0x08000e18:    fa06f105    ....    LSL      r1,r6,r5
        0x08000e1c:    1e49        I.      SUBS     r1,r1,#1
        0x08000e1e:    4021        !@      ANDS     r1,r1,r4
        0x08000e20:    4099        .@      LSLS     r1,r1,r3
        0x08000e22:    409e        .@      LSLS     r6,r6,r3
        0x08000e24:    1e76        v.      SUBS     r6,r6,#1
        0x08000e26:    4016        .@      ANDS     r6,r6,r2
        0x08000e28:    4331        1C      ORRS     r1,r1,r6
        0x08000e2a:    bcf0        ..      POP      {r4-r7}
        0x08000e2c:    f002bafa    ....    B.W      __NVIC_SetPriority ; 0x8003424
    $d
        0x08000e30:    e000ed0c    ....    DCD    3758157068
    $t
    i.HAL_NVIC_SetPriorityGrouping
    HAL_NVIC_SetPriorityGrouping
        0x08000e34:    4906        .I      LDR      r1,[pc,#24] ; [0x8000e50] = 0xe000ed0c
        0x08000e36:    f0000207    ....    AND      r2,r0,#7
        0x08000e3a:    6808        .h      LDR      r0,[r1,#0]
        0x08000e3c:    f64f03ff    O...    MOV      r3,#0xf8ff
        0x08000e40:    4018        .@      ANDS     r0,r0,r3
        0x08000e42:    ea402002    @..     ORR      r0,r0,r2,LSL #8
        0x08000e46:    4a03        .J      LDR      r2,[pc,#12] ; [0x8000e54] = 0x5fa0000
        0x08000e48:    4310        .C      ORRS     r0,r0,r2
        0x08000e4a:    6008        .`      STR      r0,[r1,#0]
        0x08000e4c:    4770        pG      BX       lr
    $d
        0x08000e4e:    0000        ..      DCW    0
        0x08000e50:    e000ed0c    ....    DCD    3758157068
        0x08000e54:    05fa0000    ....    DCD    100270080
    $t
    i.HAL_PWREx_ControlVoltageScaling
    HAL_PWREx_ControlVoltageScaling
        0x08000e58:    4916        .I      LDR      r1,[pc,#88] ; [0x8000eb4] = 0x40007000
        0x08000e5a:    f5b07f00    ....    CMP      r0,#0x200
        0x08000e5e:    6808        .h      LDR      r0,[r1,#0]
        0x08000e60:    f3c02041    ..A     UBFX     r0,r0,#9,#2
        0x08000e64:    d009        ..      BEQ      0x8000e7a ; HAL_PWREx_ControlVoltageScaling + 34
        0x08000e66:    2802        .(      CMP      r0,#2
        0x08000e68:    d005        ..      BEQ      0x8000e76 ; HAL_PWREx_ControlVoltageScaling + 30
        0x08000e6a:    6808        .h      LDR      r0,[r1,#0]
        0x08000e6c:    f42060c0     ..`    BIC      r0,r0,#0x600
        0x08000e70:    f4406080    @..`    ORR      r0,r0,#0x400
        0x08000e74:    6008        .`      STR      r0,[r1,#0]
        0x08000e76:    2000        .       MOVS     r0,#0
        0x08000e78:    4770        pG      BX       lr
        0x08000e7a:    2801        .(      CMP      r0,#1
        0x08000e7c:    d0fb        ..      BEQ      0x8000e76 ; HAL_PWREx_ControlVoltageScaling + 30
        0x08000e7e:    6808        .h      LDR      r0,[r1,#0]
        0x08000e80:    f42060c0     ..`    BIC      r0,r0,#0x600
        0x08000e84:    f4407000    @..p    ORR      r0,r0,#0x200
        0x08000e88:    6008        .`      STR      r0,[r1,#0]
        0x08000e8a:    480b        .H      LDR      r0,[pc,#44] ; [0x8000eb8] = 0x2000000c
        0x08000e8c:    2232        2"      MOVS     r2,#0x32
        0x08000e8e:    6800        .h      LDR      r0,[r0,#0]
        0x08000e90:    4350        PC      MULS     r0,r2,r0
        0x08000e92:    4a0a        .J      LDR      r2,[pc,#40] ; [0x8000ebc] = 0xf4240
        0x08000e94:    fbb0f0f2    ....    UDIV     r0,r0,r2
        0x08000e98:    1c40        @.      ADDS     r0,r0,#1
        0x08000e9a:    e000        ..      B        0x8000e9e ; HAL_PWREx_ControlVoltageScaling + 70
        0x08000e9c:    1e40        @.      SUBS     r0,r0,#1
        0x08000e9e:    694a        Ji      LDR      r2,[r1,#0x14]
        0x08000ea0:    0552        R.      LSLS     r2,r2,#21
        0x08000ea2:    d501        ..      BPL      0x8000ea8 ; HAL_PWREx_ControlVoltageScaling + 80
        0x08000ea4:    2800        .(      CMP      r0,#0
        0x08000ea6:    d1f9        ..      BNE      0x8000e9c ; HAL_PWREx_ControlVoltageScaling + 68
        0x08000ea8:    6948        Hi      LDR      r0,[r1,#0x14]
        0x08000eaa:    0540        @.      LSLS     r0,r0,#21
        0x08000eac:    d5e3        ..      BPL      0x8000e76 ; HAL_PWREx_ControlVoltageScaling + 30
        0x08000eae:    2003        .       MOVS     r0,#3
        0x08000eb0:    4770        pG      BX       lr
    $d
        0x08000eb2:    0000        ..      DCW    0
        0x08000eb4:    40007000    .p.@    DCD    1073770496
        0x08000eb8:    2000000c    ...     DCD    536870924
        0x08000ebc:    000f4240    @B..    DCD    1000000
    $t
    i.HAL_PWREx_GetVoltageRange
    HAL_PWREx_GetVoltageRange
        0x08000ec0:    4802        .H      LDR      r0,[pc,#8] ; [0x8000ecc] = 0x40007000
        0x08000ec2:    6800        .h      LDR      r0,[r0,#0]
        0x08000ec4:    f40060c0    ...`    AND      r0,r0,#0x600
        0x08000ec8:    4770        pG      BX       lr
    $d
        0x08000eca:    0000        ..      DCW    0
        0x08000ecc:    40007000    .p.@    DCD    1073770496
    $t
    i.HAL_RCCEx_PeriphCLKConfig
    HAL_RCCEx_PeriphCLKConfig
        0x08000ed0:    e92d4ff8    -..O    PUSH     {r3-r11,lr}
        0x08000ed4:    4604        .F      MOV      r4,r0
        0x08000ed6:    2700        .'      MOVS     r7,#0
        0x08000ed8:    8800        ..      LDRH     r0,[r0,#0]
        0x08000eda:    4de5        .M      LDR      r5,[pc,#916] ; [0x8001270] = 0x40021000
        0x08000edc:    463e        >F      MOV      r6,r7
        0x08000ede:    0501        ..      LSLS     r1,r0,#20
        0x08000ee0:    f1040b20    .. .    ADD      r11,r4,#0x20
        0x08000ee4:    d51d        ..      BPL      0x8000f22 ; HAL_RCCEx_PeriphCLKConfig + 82
        0x08000ee6:    6e60        `n      LDR      r0,[r4,#0x64]
        0x08000ee8:    b178        x.      CBZ      r0,0x8000f0a ; HAL_RCCEx_PeriphCLKConfig + 58
        0x08000eea:    f5b00f80    ....    CMP      r0,#0x400000
        0x08000eee:    d011        ..      BEQ      0x8000f14 ; HAL_RCCEx_PeriphCLKConfig + 68
        0x08000ef0:    f5b00f00    ....    CMP      r0,#0x800000
        0x08000ef4:    d004        ..      BEQ      0x8000f00 ; HAL_RCCEx_PeriphCLKConfig + 48
        0x08000ef6:    f5b00f40    ..@.    CMP      r0,#0xc00000
        0x08000efa:    d022        ".      BEQ      0x8000f42 ; HAL_RCCEx_PeriphCLKConfig + 114
        0x08000efc:    2701        .'      MOVS     r7,#1
        0x08000efe:    e00f        ..      B        0x8000f20 ; HAL_RCCEx_PeriphCLKConfig + 80
        0x08000f00:    68e8        .h      LDR      r0,[r5,#0xc]
        0x08000f02:    f4403080    @..0    ORR      r0,r0,#0x10000
        0x08000f06:    60e8        .`      STR      r0,[r5,#0xc]
        0x08000f08:    e01b        ..      B        0x8000f42 ; HAL_RCCEx_PeriphCLKConfig + 114
        0x08000f0a:    2100        .!      MOVS     r1,#0
        0x08000f0c:    1d20         .      ADDS     r0,r4,#4
        0x08000f0e:    f001fda3    ....    BL       RCCEx_PLLSAI1_Config ; 0x8002a58
        0x08000f12:    e003        ..      B        0x8000f1c ; HAL_RCCEx_PeriphCLKConfig + 76
        0x08000f14:    2100        .!      MOVS     r1,#0
        0x08000f16:    4658        XF      MOV      r0,r11
        0x08000f18:    f001fe34    ..4.    BL       RCCEx_PLLSAI2_Config ; 0x8002b84
        0x08000f1c:    0007        ..      MOVS     r7,r0
        0x08000f1e:    d010        ..      BEQ      0x8000f42 ; HAL_RCCEx_PeriphCLKConfig + 114
        0x08000f20:    463e        >F      MOV      r6,r7
        0x08000f22:    8820         .      LDRH     r0,[r4,#0]
        0x08000f24:    04c0        ..      LSLS     r0,r0,#19
        0x08000f26:    d526        &.      BPL      0x8000f76 ; HAL_RCCEx_PeriphCLKConfig + 166
        0x08000f28:    6ea0        .n      LDR      r0,[r4,#0x68]
        0x08000f2a:    b1c0        ..      CBZ      r0,0x8000f5e ; HAL_RCCEx_PeriphCLKConfig + 142
        0x08000f2c:    f1b07f80    ....    CMP      r0,#0x1000000
        0x08000f30:    d01a        ..      BEQ      0x8000f68 ; HAL_RCCEx_PeriphCLKConfig + 152
        0x08000f32:    f1b07f00    ....    CMP      r0,#0x2000000
        0x08000f36:    d00d        ..      BEQ      0x8000f54 ; HAL_RCCEx_PeriphCLKConfig + 132
        0x08000f38:    f1b07f40    ..@.    CMP      r0,#0x3000000
        0x08000f3c:    d019        ..      BEQ      0x8000f72 ; HAL_RCCEx_PeriphCLKConfig + 162
        0x08000f3e:    2701        .'      MOVS     r7,#1
        0x08000f40:    e018        ..      B        0x8000f74 ; HAL_RCCEx_PeriphCLKConfig + 164
        0x08000f42:    f8d50088    ....    LDR      r0,[r5,#0x88]
        0x08000f46:    6e61        an      LDR      r1,[r4,#0x64]
        0x08000f48:    f4200040     .@.    BIC      r0,r0,#0xc00000
        0x08000f4c:    4308        .C      ORRS     r0,r0,r1
        0x08000f4e:    f8c50088    ....    STR      r0,[r5,#0x88]
        0x08000f52:    e7e6        ..      B        0x8000f22 ; HAL_RCCEx_PeriphCLKConfig + 82
        0x08000f54:    68e8        .h      LDR      r0,[r5,#0xc]
        0x08000f56:    f4403080    @..0    ORR      r0,r0,#0x10000
        0x08000f5a:    60e8        .`      STR      r0,[r5,#0xc]
        0x08000f5c:    e009        ..      B        0x8000f72 ; HAL_RCCEx_PeriphCLKConfig + 162
        0x08000f5e:    2100        .!      MOVS     r1,#0
        0x08000f60:    1d20         .      ADDS     r0,r4,#4
        0x08000f62:    f001fd79    ..y.    BL       RCCEx_PLLSAI1_Config ; 0x8002a58
        0x08000f66:    e003        ..      B        0x8000f70 ; HAL_RCCEx_PeriphCLKConfig + 160
        0x08000f68:    2100        .!      MOVS     r1,#0
        0x08000f6a:    4658        XF      MOV      r0,r11
        0x08000f6c:    f001fe0a    ....    BL       RCCEx_PLLSAI2_Config ; 0x8002b84
        0x08000f70:    4607        .F      MOV      r7,r0
        0x08000f72:    b1f7        ..      CBZ      r7,0x8000fb2 ; HAL_RCCEx_PeriphCLKConfig + 226
        0x08000f74:    463e        >F      MOV      r6,r7
        0x08000f76:    6820         h      LDR      r0,[r4,#0]
        0x08000f78:    0380        ..      LSLS     r0,r0,#14
        0x08000f7a:    d53a        :.      BPL      0x8000ff2 ; HAL_RCCEx_PeriphCLKConfig + 290
        0x08000f7c:    6da8        .m      LDR      r0,[r5,#0x58]
        0x08000f7e:    f04f0800    O...    MOV      r8,#0
        0x08000f82:    00c0        ..      LSLS     r0,r0,#3
        0x08000f84:    d409        ..      BMI      0x8000f9a ; HAL_RCCEx_PeriphCLKConfig + 202
        0x08000f86:    6da8        .m      LDR      r0,[r5,#0x58]
        0x08000f88:    f0405080    @..P    ORR      r0,r0,#0x10000000
        0x08000f8c:    65a8        .e      STR      r0,[r5,#0x58]
        0x08000f8e:    6da8        .m      LDR      r0,[r5,#0x58]
        0x08000f90:    f04f0801    O...    MOV      r8,#1
        0x08000f94:    f0005080    ...P    AND      r0,r0,#0x10000000
        0x08000f98:    9000        ..      STR      r0,[sp,#0]
        0x08000f9a:    f8dfa2d8    ....    LDR      r10,[pc,#728] ; [0x8001274] = 0x40007000
        0x08000f9e:    f8da1000    ....    LDR      r1,[r10,#0]
        0x08000fa2:    f4417180    A..q    ORR      r1,r1,#0x100
        0x08000fa6:    f8ca1000    ....    STR      r1,[r10,#0]
        0x08000faa:    f7fffc33    ..3.    BL       HAL_GetTick ; 0x8000814
        0x08000fae:    4681        .F      MOV      r9,r0
        0x08000fb0:    e010        ..      B        0x8000fd4 ; HAL_RCCEx_PeriphCLKConfig + 260
        0x08000fb2:    f8d50088    ....    LDR      r0,[r5,#0x88]
        0x08000fb6:    6ea1        .n      LDR      r1,[r4,#0x68]
        0x08000fb8:    f0207040     .@p    BIC      r0,r0,#0x3000000
        0x08000fbc:    4308        .C      ORRS     r0,r0,r1
        0x08000fbe:    f8c50088    ....    STR      r0,[r5,#0x88]
        0x08000fc2:    e7d8        ..      B        0x8000f76 ; HAL_RCCEx_PeriphCLKConfig + 166
        0x08000fc4:    f7fffc26    ..&.    BL       HAL_GetTick ; 0x8000814
        0x08000fc8:    eba00009    ....    SUB      r0,r0,r9
        0x08000fcc:    2802        .(      CMP      r0,#2
        0x08000fce:    d901        ..      BLS      0x8000fd4 ; HAL_RCCEx_PeriphCLKConfig + 260
        0x08000fd0:    2703        .'      MOVS     r7,#3
        0x08000fd2:    e005        ..      B        0x8000fe0 ; HAL_RCCEx_PeriphCLKConfig + 272
        0x08000fd4:    f8da0000    ....    LDR      r0,[r10,#0]
        0x08000fd8:    05c0        ..      LSLS     r0,r0,#23
        0x08000fda:    d5f3        ..      BPL      0x8000fc4 ; HAL_RCCEx_PeriphCLKConfig + 244
        0x08000fdc:    2f00        ./      CMP      r7,#0
        0x08000fde:    d07c        |.      BEQ      0x80010da ; HAL_RCCEx_PeriphCLKConfig + 522
        0x08000fe0:    ea4f0607    O...    MOV.W    r6,r7
        0x08000fe4:    f1b80f00    ....    CMP      r8,#0
        0x08000fe8:    d003        ..      BEQ      0x8000ff2 ; HAL_RCCEx_PeriphCLKConfig + 290
        0x08000fea:    6da8        .m      LDR      r0,[r5,#0x58]
        0x08000fec:    f0205080     ..P    BIC      r0,r0,#0x10000000
        0x08000ff0:    65a8        .e      STR      r0,[r5,#0x58]
        0x08000ff2:    7820         x      LDRB     r0,[r4,#0]
        0x08000ff4:    07c0        ..      LSLS     r0,r0,#31
        0x08000ff6:    d007        ..      BEQ      0x8001008 ; HAL_RCCEx_PeriphCLKConfig + 312
        0x08000ff8:    f8d50088    ....    LDR      r0,[r5,#0x88]
        0x08000ffc:    6ba1        .k      LDR      r1,[r4,#0x38]
        0x08000ffe:    f0200003     ...    BIC      r0,r0,#3
        0x08001002:    4308        .C      ORRS     r0,r0,r1
        0x08001004:    f8c50088    ....    STR      r0,[r5,#0x88]
        0x08001008:    7820         x      LDRB     r0,[r4,#0]
        0x0800100a:    0780        ..      LSLS     r0,r0,#30
        0x0800100c:    d507        ..      BPL      0x800101e ; HAL_RCCEx_PeriphCLKConfig + 334
        0x0800100e:    f8d50088    ....    LDR      r0,[r5,#0x88]
        0x08001012:    6be1        .k      LDR      r1,[r4,#0x3c]
        0x08001014:    f020000c     ...    BIC      r0,r0,#0xc
        0x08001018:    4308        .C      ORRS     r0,r0,r1
        0x0800101a:    f8c50088    ....    STR      r0,[r5,#0x88]
        0x0800101e:    7820         x      LDRB     r0,[r4,#0]
        0x08001020:    0740        @.      LSLS     r0,r0,#29
        0x08001022:    d507        ..      BPL      0x8001034 ; HAL_RCCEx_PeriphCLKConfig + 356
        0x08001024:    f8d50088    ....    LDR      r0,[r5,#0x88]
        0x08001028:    6c21        !l      LDR      r1,[r4,#0x40]
        0x0800102a:    f0200030     .0.    BIC      r0,r0,#0x30
        0x0800102e:    4308        .C      ORRS     r0,r0,r1
        0x08001030:    f8c50088    ....    STR      r0,[r5,#0x88]
        0x08001034:    7820         x      LDRB     r0,[r4,#0]
        0x08001036:    0700        ..      LSLS     r0,r0,#28
        0x08001038:    d507        ..      BPL      0x800104a ; HAL_RCCEx_PeriphCLKConfig + 378
        0x0800103a:    f8d50088    ....    LDR      r0,[r5,#0x88]
        0x0800103e:    6c61        al      LDR      r1,[r4,#0x44]
        0x08001040:    f02000c0     ...    BIC      r0,r0,#0xc0
        0x08001044:    4308        .C      ORRS     r0,r0,r1
        0x08001046:    f8c50088    ....    STR      r0,[r5,#0x88]
        0x0800104a:    7820         x      LDRB     r0,[r4,#0]
        0x0800104c:    06c0        ..      LSLS     r0,r0,#27
        0x0800104e:    d507        ..      BPL      0x8001060 ; HAL_RCCEx_PeriphCLKConfig + 400
        0x08001050:    f8d50088    ....    LDR      r0,[r5,#0x88]
        0x08001054:    6ca1        .l      LDR      r1,[r4,#0x48]
        0x08001056:    f4207040     .@p    BIC      r0,r0,#0x300
        0x0800105a:    4308        .C      ORRS     r0,r0,r1
        0x0800105c:    f8c50088    ....    STR      r0,[r5,#0x88]
        0x08001060:    7820         x      LDRB     r0,[r4,#0]
        0x08001062:    0680        ..      LSLS     r0,r0,#26
        0x08001064:    d507        ..      BPL      0x8001076 ; HAL_RCCEx_PeriphCLKConfig + 422
        0x08001066:    f8d50088    ....    LDR      r0,[r5,#0x88]
        0x0800106a:    6ce1        .l      LDR      r1,[r4,#0x4c]
        0x0800106c:    f4206040     .@`    BIC      r0,r0,#0xc00
        0x08001070:    4308        .C      ORRS     r0,r0,r1
        0x08001072:    f8c50088    ....    STR      r0,[r5,#0x88]
        0x08001076:    8820         .      LDRH     r0,[r4,#0]
        0x08001078:    0580        ..      LSLS     r0,r0,#22
        0x0800107a:    d507        ..      BPL      0x800108c ; HAL_RCCEx_PeriphCLKConfig + 444
        0x0800107c:    f8d50088    ....    LDR      r0,[r5,#0x88]
        0x08001080:    6de1        .m      LDR      r1,[r4,#0x5c]
        0x08001082:    f4202040     .@     BIC      r0,r0,#0xc0000
        0x08001086:    4308        .C      ORRS     r0,r0,r1
        0x08001088:    f8c50088    ....    STR      r0,[r5,#0x88]
        0x0800108c:    8820         .      LDRH     r0,[r4,#0]
        0x0800108e:    0540        @.      LSLS     r0,r0,#21
        0x08001090:    d507        ..      BPL      0x80010a2 ; HAL_RCCEx_PeriphCLKConfig + 466
        0x08001092:    f8d50088    ....    LDR      r0,[r5,#0x88]
        0x08001096:    6e21        !n      LDR      r1,[r4,#0x60]
        0x08001098:    f4201040     .@.    BIC      r0,r0,#0x300000
        0x0800109c:    4308        .C      ORRS     r0,r0,r1
        0x0800109e:    f8c50088    ....    STR      r0,[r5,#0x88]
        0x080010a2:    7820         x      LDRB     r0,[r4,#0]
        0x080010a4:    0640        @.      LSLS     r0,r0,#25
        0x080010a6:    d507        ..      BPL      0x80010b8 ; HAL_RCCEx_PeriphCLKConfig + 488
        0x080010a8:    f8d50088    ....    LDR      r0,[r5,#0x88]
        0x080010ac:    6d21        !m      LDR      r1,[r4,#0x50]
        0x080010ae:    f4205040     .@P    BIC      r0,r0,#0x3000
        0x080010b2:    4308        .C      ORRS     r0,r0,r1
        0x080010b4:    f8c50088    ....    STR      r0,[r5,#0x88]
        0x080010b8:    7820         x      LDRB     r0,[r4,#0]
        0x080010ba:    0600        ..      LSLS     r0,r0,#24
        0x080010bc:    d507        ..      BPL      0x80010ce ; HAL_RCCEx_PeriphCLKConfig + 510
        0x080010be:    f8d50088    ....    LDR      r0,[r5,#0x88]
        0x080010c2:    6d61        am      LDR      r1,[r4,#0x54]
        0x080010c4:    f4204040     .@@    BIC      r0,r0,#0xc000
        0x080010c8:    4308        .C      ORRS     r0,r0,r1
        0x080010ca:    f8c50088    ....    STR      r0,[r5,#0x88]
        0x080010ce:    8820         .      LDRH     r0,[r4,#0]
        0x080010d0:    05c0        ..      LSLS     r0,r0,#23
        0x080010d2:    d509        ..      BPL      0x80010e8 ; HAL_RCCEx_PeriphCLKConfig + 536
        0x080010d4:    f8d50088    ....    LDR      r0,[r5,#0x88]
        0x080010d8:    e000        ..      B        0x80010dc ; HAL_RCCEx_PeriphCLKConfig + 524
        0x080010da:    e01c        ..      B        0x8001116 ; HAL_RCCEx_PeriphCLKConfig + 582
        0x080010dc:    6da1        .m      LDR      r1,[r4,#0x58]
        0x080010de:    f4203040     .@0    BIC      r0,r0,#0x30000
        0x080010e2:    4308        .C      ORRS     r0,r0,r1
        0x080010e4:    f8c50088    ....    STR      r0,[r5,#0x88]
        0x080010e8:    8820         .      LDRH     r0,[r4,#0]
        0x080010ea:    f04f6700    O..g    MOV      r7,#0x8000000
        0x080010ee:    0480        ..      LSLS     r0,r0,#18
        0x080010f0:    f04f6880    O..h    MOV      r8,#0x4000000
        0x080010f4:    d54f        O.      BPL      0x8001196 ; HAL_RCCEx_PeriphCLKConfig + 710
        0x080010f6:    f8d50088    ....    LDR      r0,[r5,#0x88]
        0x080010fa:    6ee1        .n      LDR      r1,[r4,#0x6c]
        0x080010fc:    f0206040     .@`    BIC      r0,r0,#0xc000000
        0x08001100:    4308        .C      ORRS     r0,r0,r1
        0x08001102:    f8c50088    ....    STR      r0,[r5,#0x88]
        0x08001106:    6ee0        .n      LDR      r0,[r4,#0x6c]
        0x08001108:    42b8        .B      CMP      r0,r7
        0x0800110a:    d13c        <.      BNE      0x8001186 ; HAL_RCCEx_PeriphCLKConfig + 694
        0x0800110c:    68e8        .h      LDR      r0,[r5,#0xc]
        0x0800110e:    f4401080    @...    ORR      r0,r0,#0x100000
        0x08001112:    60e8        .`      STR      r0,[r5,#0xc]
        0x08001114:    e03f        ?.      B        0x8001196 ; HAL_RCCEx_PeriphCLKConfig + 710
        0x08001116:    f8d50090    ....    LDR      r0,[r5,#0x90]
        0x0800111a:    f4107040    ..@p    ANDS     r0,r0,#0x300
        0x0800111e:    d015        ..      BEQ      0x800114c ; HAL_RCCEx_PeriphCLKConfig + 636
        0x08001120:    f8d41084    ....    LDR      r1,[r4,#0x84]
        0x08001124:    4281        .B      CMP      r1,r0
        0x08001126:    d011        ..      BEQ      0x800114c ; HAL_RCCEx_PeriphCLKConfig + 636
        0x08001128:    f8d50090    ....    LDR      r0,[r5,#0x90]
        0x0800112c:    f8d51090    ....    LDR      r1,[r5,#0x90]
        0x08001130:    f4207040     .@p    BIC      r0,r0,#0x300
        0x08001134:    f4413180    A..1    ORR      r1,r1,#0x10000
        0x08001138:    f8c51090    ....    STR      r1,[r5,#0x90]
        0x0800113c:    f8d51090    ....    LDR      r1,[r5,#0x90]
        0x08001140:    f4213180    !..1    BIC      r1,r1,#0x10000
        0x08001144:    f8c51090    ....    STR      r1,[r5,#0x90]
        0x08001148:    f8c50090    ....    STR      r0,[r5,#0x90]
        0x0800114c:    07c0        ..      LSLS     r0,r0,#31
        0x0800114e:    d010        ..      BEQ      0x8001172 ; HAL_RCCEx_PeriphCLKConfig + 674
        0x08001150:    f7fffb60    ..`.    BL       HAL_GetTick ; 0x8000814
        0x08001154:    4607        .F      MOV      r7,r0
        0x08001156:    f2413988    A..9    MOV      r9,#0x1388
        0x0800115a:    e006        ..      B        0x800116a ; HAL_RCCEx_PeriphCLKConfig + 666
        0x0800115c:    f7fffb5a    ..Z.    BL       HAL_GetTick ; 0x8000814
        0x08001160:    1bc1        ..      SUBS     r1,r0,r7
        0x08001162:    4549        IE      CMP      r1,r9
        0x08001164:    d901        ..      BLS      0x800116a ; HAL_RCCEx_PeriphCLKConfig + 666
        0x08001166:    2603        .&      MOVS     r6,#3
        0x08001168:    e73c        <.      B        0x8000fe4 ; HAL_RCCEx_PeriphCLKConfig + 276
        0x0800116a:    f8d50090    ....    LDR      r0,[r5,#0x90]
        0x0800116e:    0780        ..      LSLS     r0,r0,#30
        0x08001170:    d5f4        ..      BPL      0x800115c ; HAL_RCCEx_PeriphCLKConfig + 652
        0x08001172:    f8d50090    ....    LDR      r0,[r5,#0x90]
        0x08001176:    f8d41084    ....    LDR      r1,[r4,#0x84]
        0x0800117a:    f4207040     .@p    BIC      r0,r0,#0x300
        0x0800117e:    4308        .C      ORRS     r0,r0,r1
        0x08001180:    f8c50090    ....    STR      r0,[r5,#0x90]
        0x08001184:    e72e        ..      B        0x8000fe4 ; HAL_RCCEx_PeriphCLKConfig + 276
        0x08001186:    4540        @E      CMP      r0,r8
        0x08001188:    d105        ..      BNE      0x8001196 ; HAL_RCCEx_PeriphCLKConfig + 710
        0x0800118a:    2101        .!      MOVS     r1,#1
        0x0800118c:    1d20         .      ADDS     r0,r4,#4
        0x0800118e:    f001fc63    ..c.    BL       RCCEx_PLLSAI1_Config ; 0x8002a58
        0x08001192:    b100        ..      CBZ      r0,0x8001196 ; HAL_RCCEx_PeriphCLKConfig + 710
        0x08001194:    4606        .F      MOV      r6,r0
        0x08001196:    6820         h      LDR      r0,[r4,#0]
        0x08001198:    0300        ..      LSLS     r0,r0,#12
        0x0800119a:    d517        ..      BPL      0x80011cc ; HAL_RCCEx_PeriphCLKConfig + 764
        0x0800119c:    f8d50088    ....    LDR      r0,[r5,#0x88]
        0x080011a0:    6f21        !o      LDR      r1,[r4,#0x70]
        0x080011a2:    f0206040     .@`    BIC      r0,r0,#0xc000000
        0x080011a6:    4308        .C      ORRS     r0,r0,r1
        0x080011a8:    f8c50088    ....    STR      r0,[r5,#0x88]
        0x080011ac:    6f20         o      LDR      r0,[r4,#0x70]
        0x080011ae:    42b8        .B      CMP      r0,r7
        0x080011b0:    d104        ..      BNE      0x80011bc ; HAL_RCCEx_PeriphCLKConfig + 748
        0x080011b2:    68e8        .h      LDR      r0,[r5,#0xc]
        0x080011b4:    f4401080    @...    ORR      r0,r0,#0x100000
        0x080011b8:    60e8        .`      STR      r0,[r5,#0xc]
        0x080011ba:    e007        ..      B        0x80011cc ; HAL_RCCEx_PeriphCLKConfig + 764
        0x080011bc:    4540        @E      CMP      r0,r8
        0x080011be:    d105        ..      BNE      0x80011cc ; HAL_RCCEx_PeriphCLKConfig + 764
        0x080011c0:    2101        .!      MOVS     r1,#1
        0x080011c2:    1d20         .      ADDS     r0,r4,#4
        0x080011c4:    f001fc48    ..H.    BL       RCCEx_PLLSAI1_Config ; 0x8002a58
        0x080011c8:    b100        ..      CBZ      r0,0x80011cc ; HAL_RCCEx_PeriphCLKConfig + 764
        0x080011ca:    4606        .F      MOV      r6,r0
        0x080011cc:    6820         h      LDR      r0,[r4,#0]
        0x080011ce:    0340        @.      LSLS     r0,r0,#13
        0x080011d0:    d517        ..      BPL      0x8001202 ; HAL_RCCEx_PeriphCLKConfig + 818
        0x080011d2:    f8d50088    ....    LDR      r0,[r5,#0x88]
        0x080011d6:    6f61        ao      LDR      r1,[r4,#0x74]
        0x080011d8:    f0206040     .@`    BIC      r0,r0,#0xc000000
        0x080011dc:    4308        .C      ORRS     r0,r0,r1
        0x080011de:    f8c50088    ....    STR      r0,[r5,#0x88]
        0x080011e2:    6f60        `o      LDR      r0,[r4,#0x74]
        0x080011e4:    42b8        .B      CMP      r0,r7
        0x080011e6:    d104        ..      BNE      0x80011f2 ; HAL_RCCEx_PeriphCLKConfig + 802
        0x080011e8:    68e8        .h      LDR      r0,[r5,#0xc]
        0x080011ea:    f4401080    @...    ORR      r0,r0,#0x100000
        0x080011ee:    60e8        .`      STR      r0,[r5,#0xc]
        0x080011f0:    e007        ..      B        0x8001202 ; HAL_RCCEx_PeriphCLKConfig + 818
        0x080011f2:    4540        @E      CMP      r0,r8
        0x080011f4:    d105        ..      BNE      0x8001202 ; HAL_RCCEx_PeriphCLKConfig + 818
        0x080011f6:    2101        .!      MOVS     r1,#1
        0x080011f8:    1d20         .      ADDS     r0,r4,#4
        0x080011fa:    f001fc2d    ..-.    BL       RCCEx_PLLSAI1_Config ; 0x8002a58
        0x080011fe:    b100        ..      CBZ      r0,0x8001202 ; HAL_RCCEx_PeriphCLKConfig + 818
        0x08001200:    4606        .F      MOV      r6,r0
        0x08001202:    8820         .      LDRH     r0,[r4,#0]
        0x08001204:    0440        @.      LSLS     r0,r0,#17
        0x08001206:    d51a        ..      BPL      0x800123e ; HAL_RCCEx_PeriphCLKConfig + 878
        0x08001208:    f8d50088    ....    LDR      r0,[r5,#0x88]
        0x0800120c:    6fa1        .o      LDR      r1,[r4,#0x78]
        0x0800120e:    f0205040     .@P    BIC      r0,r0,#0x30000000
        0x08001212:    4308        .C      ORRS     r0,r0,r1
        0x08001214:    f8c50088    ....    STR      r0,[r5,#0x88]
        0x08001218:    6fa0        .o      LDR      r0,[r4,#0x78]
        0x0800121a:    f1b05f80    ..._    CMP      r0,#0x10000000
        0x0800121e:    d003        ..      BEQ      0x8001228 ; HAL_RCCEx_PeriphCLKConfig + 856
        0x08001220:    f1b05f00    ..._    CMP      r0,#0x20000000
        0x08001224:    d005        ..      BEQ      0x8001232 ; HAL_RCCEx_PeriphCLKConfig + 866
        0x08001226:    e00a        ..      B        0x800123e ; HAL_RCCEx_PeriphCLKConfig + 878
        0x08001228:    2102        .!      MOVS     r1,#2
        0x0800122a:    1d20         .      ADDS     r0,r4,#4
        0x0800122c:    f001fc14    ....    BL       RCCEx_PLLSAI1_Config ; 0x8002a58
        0x08001230:    e003        ..      B        0x800123a ; HAL_RCCEx_PeriphCLKConfig + 874
        0x08001232:    2102        .!      MOVS     r1,#2
        0x08001234:    4658        XF      MOV      r0,r11
        0x08001236:    f001fca5    ....    BL       RCCEx_PLLSAI2_Config ; 0x8002b84
        0x0800123a:    b100        ..      CBZ      r0,0x800123e ; HAL_RCCEx_PeriphCLKConfig + 878
        0x0800123c:    4606        .F      MOV      r6,r0
        0x0800123e:    8820         .      LDRH     r0,[r4,#0]
        0x08001240:    0400        ..      LSLS     r0,r0,#16
        0x08001242:    d507        ..      BPL      0x8001254 ; HAL_RCCEx_PeriphCLKConfig + 900
        0x08001244:    f8d50088    ....    LDR      r0,[r5,#0x88]
        0x08001248:    6fe1        .o      LDR      r1,[r4,#0x7c]
        0x0800124a:    f0204080     ..@    BIC      r0,r0,#0x40000000
        0x0800124e:    4308        .C      ORRS     r0,r0,r1
        0x08001250:    f8c50088    ....    STR      r0,[r5,#0x88]
        0x08001254:    6820         h      LDR      r0,[r4,#0]
        0x08001256:    03c0        ..      LSLS     r0,r0,#15
        0x08001258:    d507        ..      BPL      0x800126a ; HAL_RCCEx_PeriphCLKConfig + 922
        0x0800125a:    f8550f88    U...    LDR      r0,[r5,#0x88]!
        0x0800125e:    f8d41080    ....    LDR      r1,[r4,#0x80]
        0x08001262:    f0204000     ..@    BIC      r0,r0,#0x80000000
        0x08001266:    4308        .C      ORRS     r0,r0,r1
        0x08001268:    6028        (`      STR      r0,[r5,#0]
        0x0800126a:    4630        0F      MOV      r0,r6
        0x0800126c:    f000b804    ....    B.W      0x8001278 ; HAL_RCCEx_PeriphCLKConfig + 936
    $d
        0x08001270:    40021000    ...@    DCD    1073876992
        0x08001274:    40007000    .p.@    DCD    1073770496
    $t
        0x08001278:    bc18        ..      POP      {r3,r4}
        0x0800127a:    e8bd8fe0    ....    POP      {r5-r11,pc}
        0x0800127e:    0000        ..      MOVS     r0,r0
    i.HAL_RCC_ClockConfig
    HAL_RCC_ClockConfig
        0x08001280:    e92d47f0    -..G    PUSH     {r4-r10,lr}
        0x08001284:    460f        .F      MOV      r7,r1
        0x08001286:    0005        ..      MOVS     r5,r0
        0x08001288:    d058        X.      BEQ      0x800133c ; HAL_RCC_ClockConfig + 188
        0x0800128a:    4e40        @N      LDR      r6,[pc,#256] ; [0x800138c] = 0x40022000
        0x0800128c:    6830        0h      LDR      r0,[r6,#0]
        0x0800128e:    f0000007    ....    AND      r0,r0,#7
        0x08001292:    42b8        .B      CMP      r0,r7
        0x08001294:    d209        ..      BCS      0x80012aa ; HAL_RCC_ClockConfig + 42
        0x08001296:    6830        0h      LDR      r0,[r6,#0]
        0x08001298:    f0200007     ...    BIC      r0,r0,#7
        0x0800129c:    4338        8C      ORRS     r0,r0,r7
        0x0800129e:    6030        0`      STR      r0,[r6,#0]
        0x080012a0:    6830        0h      LDR      r0,[r6,#0]
        0x080012a2:    f0000007    ....    AND      r0,r0,#7
        0x080012a6:    42b8        .B      CMP      r0,r7
        0x080012a8:    d148        H.      BNE      0x800133c ; HAL_RCC_ClockConfig + 188
        0x080012aa:    7828        (x      LDRB     r0,[r5,#0]
        0x080012ac:    4c38        8L      LDR      r4,[pc,#224] ; [0x8001390] = 0x40021000
        0x080012ae:    07c0        ..      LSLS     r0,r0,#31
        0x080012b0:    d02c        ,.      BEQ      0x800130c ; HAL_RCC_ClockConfig + 140
        0x080012b2:    6868        hh      LDR      r0,[r5,#4]
        0x080012b4:    2803        .(      CMP      r0,#3
        0x080012b6:    d011        ..      BEQ      0x80012dc ; HAL_RCC_ClockConfig + 92
        0x080012b8:    2802        .(      CMP      r0,#2
        0x080012ba:    d012        ..      BEQ      0x80012e2 ; HAL_RCC_ClockConfig + 98
        0x080012bc:    6821        !h      LDR      r1,[r4,#0]
        0x080012be:    b198        ..      CBZ      r0,0x80012e8 ; HAL_RCC_ClockConfig + 104
        0x080012c0:    0549        I.      LSLS     r1,r1,#21
        0x080012c2:    2900        .)      CMP      r1,#0
        0x080012c4:    da3a        :.      BGE      0x800133c ; HAL_RCC_ClockConfig + 188
        0x080012c6:    68a1        .h      LDR      r1,[r4,#8]
        0x080012c8:    f0210103    !...    BIC      r1,r1,#3
        0x080012cc:    4301        .C      ORRS     r1,r1,r0
        0x080012ce:    60a1        .`      STR      r1,[r4,#8]
        0x080012d0:    f7fffaa0    ....    BL       HAL_GetTick ; 0x8000814
        0x080012d4:    4680        .F      MOV      r8,r0
        0x080012d6:    f2413988    A..9    MOV      r9,#0x1388
        0x080012da:    e010        ..      B        0x80012fe ; HAL_RCC_ClockConfig + 126
        0x080012dc:    6821        !h      LDR      r1,[r4,#0]
        0x080012de:    0189        ..      LSLS     r1,r1,#6
        0x080012e0:    e7ef        ..      B        0x80012c2 ; HAL_RCC_ClockConfig + 66
        0x080012e2:    6821        !h      LDR      r1,[r4,#0]
        0x080012e4:    0389        ..      LSLS     r1,r1,#14
        0x080012e6:    e7ec        ..      B        0x80012c2 ; HAL_RCC_ClockConfig + 66
        0x080012e8:    0789        ..      LSLS     r1,r1,#30
        0x080012ea:    e7ea        ..      B        0x80012c2 ; HAL_RCC_ClockConfig + 66
        0x080012ec:    f7fffa92    ....    BL       HAL_GetTick ; 0x8000814
        0x080012f0:    eba00108    ....    SUB      r1,r0,r8
        0x080012f4:    4549        IE      CMP      r1,r9
        0x080012f6:    d902        ..      BLS      0x80012fe ; HAL_RCC_ClockConfig + 126
        0x080012f8:    2003        .       MOVS     r0,#3
        0x080012fa:    e8bd87f0    ....    POP      {r4-r10,pc}
        0x080012fe:    68a0        .h      LDR      r0,[r4,#8]
        0x08001300:    6869        ih      LDR      r1,[r5,#4]
        0x08001302:    f000000c    ....    AND      r0,r0,#0xc
        0x08001306:    ebb00f81    ....    CMP      r0,r1,LSL #2
        0x0800130a:    d1ef        ..      BNE      0x80012ec ; HAL_RCC_ClockConfig + 108
        0x0800130c:    7828        (x      LDRB     r0,[r5,#0]
        0x0800130e:    0780        ..      LSLS     r0,r0,#30
        0x08001310:    d505        ..      BPL      0x800131e ; HAL_RCC_ClockConfig + 158
        0x08001312:    68a0        .h      LDR      r0,[r4,#8]
        0x08001314:    68a9        .h      LDR      r1,[r5,#8]
        0x08001316:    f02000f0     ...    BIC      r0,r0,#0xf0
        0x0800131a:    4308        .C      ORRS     r0,r0,r1
        0x0800131c:    60a0        .`      STR      r0,[r4,#8]
        0x0800131e:    6830        0h      LDR      r0,[r6,#0]
        0x08001320:    f0000007    ....    AND      r0,r0,#7
        0x08001324:    42b8        .B      CMP      r0,r7
        0x08001326:    d90b        ..      BLS      0x8001340 ; HAL_RCC_ClockConfig + 192
        0x08001328:    6830        0h      LDR      r0,[r6,#0]
        0x0800132a:    f0200007     ...    BIC      r0,r0,#7
        0x0800132e:    4338        8C      ORRS     r0,r0,r7
        0x08001330:    6030        0`      STR      r0,[r6,#0]
        0x08001332:    6830        0h      LDR      r0,[r6,#0]
        0x08001334:    f0000007    ....    AND      r0,r0,#7
        0x08001338:    42b8        .B      CMP      r0,r7
        0x0800133a:    d001        ..      BEQ      0x8001340 ; HAL_RCC_ClockConfig + 192
        0x0800133c:    2001        .       MOVS     r0,#1
        0x0800133e:    e7dc        ..      B        0x80012fa ; HAL_RCC_ClockConfig + 122
        0x08001340:    7828        (x      LDRB     r0,[r5,#0]
        0x08001342:    0740        @.      LSLS     r0,r0,#29
        0x08001344:    d505        ..      BPL      0x8001352 ; HAL_RCC_ClockConfig + 210
        0x08001346:    68a0        .h      LDR      r0,[r4,#8]
        0x08001348:    68e9        .h      LDR      r1,[r5,#0xc]
        0x0800134a:    f42060e0     ..`    BIC      r0,r0,#0x700
        0x0800134e:    4308        .C      ORRS     r0,r0,r1
        0x08001350:    60a0        .`      STR      r0,[r4,#8]
        0x08001352:    7828        (x      LDRB     r0,[r5,#0]
        0x08001354:    0700        ..      LSLS     r0,r0,#28
        0x08001356:    d506        ..      BPL      0x8001366 ; HAL_RCC_ClockConfig + 230
        0x08001358:    68a0        .h      LDR      r0,[r4,#8]
        0x0800135a:    6929        )i      LDR      r1,[r5,#0x10]
        0x0800135c:    f4205060     .`P    BIC      r0,r0,#0x3800
        0x08001360:    ea4000c1    @...    ORR      r0,r0,r1,LSL #3
        0x08001364:    60a0        .`      STR      r0,[r4,#8]
        0x08001366:    f000f83f    ..?.    BL       HAL_RCC_GetSysClockFreq ; 0x80013e8
        0x0800136a:    68a1        .h      LDR      r1,[r4,#8]
        0x0800136c:    4a09        .J      LDR      r2,[pc,#36] ; [0x8001394] = 0x800386c
        0x0800136e:    f3c11103    ....    UBFX     r1,r1,#4,#4
        0x08001372:    5c51        Q\      LDRB     r1,[r2,r1]
        0x08001374:    f001011f    ....    AND      r1,r1,#0x1f
        0x08001378:    40c8        .@      LSRS     r0,r0,r1
        0x0800137a:    4907        .I      LDR      r1,[pc,#28] ; [0x8001398] = 0x2000000c
        0x0800137c:    6008        .`      STR      r0,[r1,#0]
        0x0800137e:    4807        .H      LDR      r0,[pc,#28] ; [0x800139c] = 0x20000000
        0x08001380:    6800        .h      LDR      r0,[r0,#0]
        0x08001382:    e8bd47f0    ...G    POP      {r4-r10,lr}
        0x08001386:    f7ffbcef    ....    B.W      HAL_InitTick ; 0x8000d68
    $d
        0x0800138a:    0000        ..      DCW    0
        0x0800138c:    40022000    . .@    DCD    1073881088
        0x08001390:    40021000    ...@    DCD    1073876992
        0x08001394:    0800386c    l8..    DCD    134232172
        0x08001398:    2000000c    ...     DCD    536870924
        0x0800139c:    20000000    ...     DCD    536870912
    $t
    i.HAL_RCC_GetPCLK1Freq
    HAL_RCC_GetPCLK1Freq
        0x080013a0:    4805        .H      LDR      r0,[pc,#20] ; [0x80013b8] = 0x2000000c
        0x080013a2:    4906        .I      LDR      r1,[pc,#24] ; [0x80013bc] = 0x40021000
        0x080013a4:    6800        .h      LDR      r0,[r0,#0]
        0x080013a6:    6889        .h      LDR      r1,[r1,#8]
        0x080013a8:    4a05        .J      LDR      r2,[pc,#20] ; [0x80013c0] = 0x80038ac
        0x080013aa:    f3c12102    ...!    UBFX     r1,r1,#8,#3
        0x080013ae:    5c51        Q\      LDRB     r1,[r2,r1]
        0x080013b0:    f001011f    ....    AND      r1,r1,#0x1f
        0x080013b4:    40c8        .@      LSRS     r0,r0,r1
        0x080013b6:    4770        pG      BX       lr
    $d
        0x080013b8:    2000000c    ...     DCD    536870924
        0x080013bc:    40021000    ...@    DCD    1073876992
        0x080013c0:    080038ac    .8..    DCD    134232236
    $t
    i.HAL_RCC_GetPCLK2Freq
    HAL_RCC_GetPCLK2Freq
        0x080013c4:    4805        .H      LDR      r0,[pc,#20] ; [0x80013dc] = 0x2000000c
        0x080013c6:    4906        .I      LDR      r1,[pc,#24] ; [0x80013e0] = 0x40021000
        0x080013c8:    6800        .h      LDR      r0,[r0,#0]
        0x080013ca:    6889        .h      LDR      r1,[r1,#8]
        0x080013cc:    4a05        .J      LDR      r2,[pc,#20] ; [0x80013e4] = 0x80038ac
        0x080013ce:    f3c121c2    ...!    UBFX     r1,r1,#11,#3
        0x080013d2:    5c51        Q\      LDRB     r1,[r2,r1]
        0x080013d4:    f001011f    ....    AND      r1,r1,#0x1f
        0x080013d8:    40c8        .@      LSRS     r0,r0,r1
        0x080013da:    4770        pG      BX       lr
    $d
        0x080013dc:    2000000c    ...     DCD    536870924
        0x080013e0:    40021000    ...@    DCD    1073876992
        0x080013e4:    080038ac    .8..    DCD    134232236
    $t
    i.HAL_RCC_GetSysClockFreq
    HAL_RCC_GetSysClockFreq
        0x080013e8:    b570        p.      PUSH     {r4-r6,lr}
        0x080013ea:    4925        %I      LDR      r1,[pc,#148] ; [0x8001480] = 0x40021000
        0x080013ec:    2300        .#      MOVS     r3,#0
        0x080013ee:    4618        .F      MOV      r0,r3
        0x080013f0:    688a        .h      LDR      r2,[r1,#8]
        0x080013f2:    68cc        .h      LDR      r4,[r1,#0xc]
        0x080013f4:    f012020c    ....    ANDS     r2,r2,#0xc
        0x080013f8:    f0040603    ....    AND      r6,r4,#3
        0x080013fc:    4c21        !L      LDR      r4,[pc,#132] ; [0x8001484] = 0xf42400
        0x080013fe:    ea4f0564    O.d.    ASR      r5,r4,#1
        0x08001402:    d009        ..      BEQ      0x8001418 ; HAL_RCC_GetSysClockFreq + 48
        0x08001404:    2a0c        .*      CMP      r2,#0xc
        0x08001406:    d005        ..      BEQ      0x8001414 ; HAL_RCC_GetSysClockFreq + 44
        0x08001408:    2a04        .*      CMP      r2,#4
        0x0800140a:    d032        2.      BEQ      0x8001472 ; HAL_RCC_GetSysClockFreq + 138
        0x0800140c:    2a08        .*      CMP      r2,#8
        0x0800140e:    d100        ..      BNE      0x8001412 ; HAL_RCC_GetSysClockFreq + 42
        0x08001410:    4628        (F      MOV      r0,r5
        0x08001412:    bd70        p.      POP      {r4-r6,pc}
        0x08001414:    2e01        ..      CMP      r6,#1
        0x08001416:    d110        ..      BNE      0x800143a ; HAL_RCC_GetSysClockFreq + 82
        0x08001418:    680b        .h      LDR      r3,[r1,#0]
        0x0800141a:    071b        ..      LSLS     r3,r3,#28
        0x0800141c:    d404        ..      BMI      0x8001428 ; HAL_RCC_GetSysClockFreq + 64
        0x0800141e:    f8d13094    ...0    LDR      r3,[r1,#0x94]
        0x08001422:    f3c32303    ...#    UBFX     r3,r3,#8,#4
        0x08001426:    e002        ..      B        0x800142e ; HAL_RCC_GetSysClockFreq + 70
        0x08001428:    680b        .h      LDR      r3,[r1,#0]
        0x0800142a:    f3c31303    ....    UBFX     r3,r3,#4,#4
        0x0800142e:    4e16        .N      LDR      r6,[pc,#88] ; [0x8001488] = 0x800387c
        0x08001430:    f8563023    V.#0    LDR      r3,[r6,r3,LSL #2]
        0x08001434:    b1da        ..      CBZ      r2,0x800146e ; HAL_RCC_GetSysClockFreq + 134
        0x08001436:    2a0c        .*      CMP      r2,#0xc
        0x08001438:    d1eb        ..      BNE      0x8001412 ; HAL_RCC_GetSysClockFreq + 42
        0x0800143a:    68c8        .h      LDR      r0,[r1,#0xc]
        0x0800143c:    f0000003    ....    AND      r0,r0,#3
        0x08001440:    2802        .(      CMP      r0,#2
        0x08001442:    d018        ..      BEQ      0x8001476 ; HAL_RCC_GetSysClockFreq + 142
        0x08001444:    2803        .(      CMP      r0,#3
        0x08001446:    d018        ..      BEQ      0x800147a ; HAL_RCC_GetSysClockFreq + 146
        0x08001448:    4618        .F      MOV      r0,r3
        0x0800144a:    68ca        .h      LDR      r2,[r1,#0xc]
        0x0800144c:    68cb        .h      LDR      r3,[r1,#0xc]
        0x0800144e:    f3c21202    ....    UBFX     r2,r2,#4,#3
        0x08001452:    f3c32306    ...#    UBFX     r3,r3,#8,#7
        0x08001456:    4343        CC      MULS     r3,r0,r3
        0x08001458:    1c52        R.      ADDS     r2,r2,#1
        0x0800145a:    fbb3f2f2    ....    UDIV     r2,r3,r2
        0x0800145e:    68c8        .h      LDR      r0,[r1,#0xc]
        0x08001460:    f3c06041    ..A`    UBFX     r0,r0,#25,#2
        0x08001464:    1c40        @.      ADDS     r0,r0,#1
        0x08001466:    0040        @.      LSLS     r0,r0,#1
        0x08001468:    fbb2f0f0    ....    UDIV     r0,r2,r0
        0x0800146c:    bd70        p.      POP      {r4-r6,pc}
        0x0800146e:    4618        .F      MOV      r0,r3
        0x08001470:    bd70        p.      POP      {r4-r6,pc}
        0x08001472:    4620         F      MOV      r0,r4
        0x08001474:    bd70        p.      POP      {r4-r6,pc}
        0x08001476:    4620         F      MOV      r0,r4
        0x08001478:    e7e7        ..      B        0x800144a ; HAL_RCC_GetSysClockFreq + 98
        0x0800147a:    4628        (F      MOV      r0,r5
        0x0800147c:    e7e5        ..      B        0x800144a ; HAL_RCC_GetSysClockFreq + 98
    $d
        0x0800147e:    0000        ..      DCW    0
        0x08001480:    40021000    ...@    DCD    1073876992
        0x08001484:    00f42400    .$..    DCD    16000000
        0x08001488:    0800387c    |8..    DCD    134232188
    $t
    i.HAL_RCC_OscConfig
    HAL_RCC_OscConfig
        0x0800148c:    e92d43f8    -..C    PUSH     {r3-r9,lr}
        0x08001490:    0004        ..      MOVS     r4,r0
        0x08001492:    d06e        n.      BEQ      0x8001572 ; HAL_RCC_OscConfig + 230
        0x08001494:    4dfd        .M      LDR      r5,[pc,#1012] ; [0x800188c] = 0x40021000
        0x08001496:    68a8        .h      LDR      r0,[r5,#8]
        0x08001498:    f000060c    ....    AND      r6,r0,#0xc
        0x0800149c:    68e8        .h      LDR      r0,[r5,#0xc]
        0x0800149e:    f0000703    ....    AND      r7,r0,#3
        0x080014a2:    7820         x      LDRB     r0,[r4,#0]
        0x080014a4:    06c0        ..      LSLS     r0,r0,#27
        0x080014a6:    d563        c.      BPL      0x8001570 ; HAL_RCC_OscConfig + 228
        0x080014a8:    b176        v.      CBZ      r6,0x80014c8 ; HAL_RCC_OscConfig + 60
        0x080014aa:    2e0c        ..      CMP      r6,#0xc
        0x080014ac:    d101        ..      BNE      0x80014b2 ; HAL_RCC_OscConfig + 38
        0x080014ae:    2f01        ./      CMP      r7,#1
        0x080014b0:    d00a        ..      BEQ      0x80014c8 ; HAL_RCC_OscConfig + 60
        0x080014b2:    69a0        .i      LDR      r0,[r4,#0x18]
        0x080014b4:    2800        .(      CMP      r0,#0
        0x080014b6:    6828        (h      LDR      r0,[r5,#0]
        0x080014b8:    d078        x.      BEQ      0x80015ac ; HAL_RCC_OscConfig + 288
        0x080014ba:    f0400001    @...    ORR      r0,r0,#1
        0x080014be:    6028        (`      STR      r0,[r5,#0]
        0x080014c0:    f7fff9a8    ....    BL       HAL_GetTick ; 0x8000814
        0x080014c4:    4680        .F      MOV      r8,r0
        0x080014c6:    e05b        [.      B        0x8001580 ; HAL_RCC_OscConfig + 244
        0x080014c8:    6828        (h      LDR      r0,[r5,#0]
        0x080014ca:    0780        ..      LSLS     r0,r0,#30
        0x080014cc:    d502        ..      BPL      0x80014d4 ; HAL_RCC_OscConfig + 72
        0x080014ce:    69a0        .i      LDR      r0,[r4,#0x18]
        0x080014d0:    2800        .(      CMP      r0,#0
        0x080014d2:    d0de        ..      BEQ      0x8001492 ; HAL_RCC_OscConfig + 6
        0x080014d4:    6a21        !j      LDR      r1,[r4,#0x20]
        0x080014d6:    6828        (h      LDR      r0,[r5,#0]
        0x080014d8:    0700        ..      LSLS     r0,r0,#28
        0x080014da:    d503        ..      BPL      0x80014e4 ; HAL_RCC_OscConfig + 88
        0x080014dc:    6828        (h      LDR      r0,[r5,#0]
        0x080014de:    f00000f0    ....    AND      r0,r0,#0xf0
        0x080014e2:    e004        ..      B        0x80014ee ; HAL_RCC_OscConfig + 98
        0x080014e4:    f8d50094    ....    LDR      r0,[r5,#0x94]
        0x080014e8:    22f0        ."      MOVS     r2,#0xf0
        0x080014ea:    ea021010    ....    AND      r0,r2,r0,LSR #4
        0x080014ee:    4281        .B      CMP      r1,r0
        0x080014f0:    d916        ..      BLS      0x8001520 ; HAL_RCC_OscConfig + 148
        0x080014f2:    4608        .F      MOV      r0,r1
        0x080014f4:    f001fbca    ....    BL       RCC_SetFlashLatencyFromMSIRange ; 0x8002c8c
        0x080014f8:    2800        .(      CMP      r0,#0
        0x080014fa:    d13a        :.      BNE      0x8001572 ; HAL_RCC_OscConfig + 230
        0x080014fc:    6828        (h      LDR      r0,[r5,#0]
        0x080014fe:    f0400008    @...    ORR      r0,r0,#8
        0x08001502:    6028        (`      STR      r0,[r5,#0]
        0x08001504:    6828        (h      LDR      r0,[r5,#0]
        0x08001506:    6a21        !j      LDR      r1,[r4,#0x20]
        0x08001508:    f02000f0     ...    BIC      r0,r0,#0xf0
        0x0800150c:    4308        .C      ORRS     r0,r0,r1
        0x0800150e:    6028        (`      STR      r0,[r5,#0]
        0x08001510:    6868        hh      LDR      r0,[r5,#4]
        0x08001512:    69e1        .i      LDR      r1,[r4,#0x1c]
        0x08001514:    f420407f     ..@    BIC      r0,r0,#0xff00
        0x08001518:    ea402001    @..     ORR      r0,r0,r1,LSL #8
        0x0800151c:    6068        h`      STR      r0,[r5,#4]
        0x0800151e:    e015        ..      B        0x800154c ; HAL_RCC_OscConfig + 192
        0x08001520:    6828        (h      LDR      r0,[r5,#0]
        0x08001522:    f0400008    @...    ORR      r0,r0,#8
        0x08001526:    6028        (`      STR      r0,[r5,#0]
        0x08001528:    6828        (h      LDR      r0,[r5,#0]
        0x0800152a:    6a21        !j      LDR      r1,[r4,#0x20]
        0x0800152c:    f02000f0     ...    BIC      r0,r0,#0xf0
        0x08001530:    4308        .C      ORRS     r0,r0,r1
        0x08001532:    6028        (`      STR      r0,[r5,#0]
        0x08001534:    6868        hh      LDR      r0,[r5,#4]
        0x08001536:    69e1        .i      LDR      r1,[r4,#0x1c]
        0x08001538:    f420407f     ..@    BIC      r0,r0,#0xff00
        0x0800153c:    ea402001    @..     ORR      r0,r0,r1,LSL #8
        0x08001540:    6068        h`      STR      r0,[r5,#4]
        0x08001542:    6a20         j      LDR      r0,[r4,#0x20]
        0x08001544:    f001fba2    ....    BL       RCC_SetFlashLatencyFromMSIRange ; 0x8002c8c
        0x08001548:    2800        .(      CMP      r0,#0
        0x0800154a:    d1d6        ..      BNE      0x80014fa ; HAL_RCC_OscConfig + 110
        0x0800154c:    f7ffff4c    ..L.    BL       HAL_RCC_GetSysClockFreq ; 0x80013e8
        0x08001550:    68a9        .h      LDR      r1,[r5,#8]
        0x08001552:    4acf        .J      LDR      r2,[pc,#828] ; [0x8001890] = 0x800386c
        0x08001554:    f3c11103    ....    UBFX     r1,r1,#4,#4
        0x08001558:    5c51        Q\      LDRB     r1,[r2,r1]
        0x0800155a:    f001011f    ....    AND      r1,r1,#0x1f
        0x0800155e:    40c8        .@      LSRS     r0,r0,r1
        0x08001560:    49cc        .I      LDR      r1,[pc,#816] ; [0x8001894] = 0x2000000c
        0x08001562:    6008        .`      STR      r0,[r1,#0]
        0x08001564:    48cc        .H      LDR      r0,[pc,#816] ; [0x8001898] = 0x20000000
        0x08001566:    6800        .h      LDR      r0,[r0,#0]
        0x08001568:    f7fffbfe    ....    BL       HAL_InitTick ; 0x8000d68
        0x0800156c:    2800        .(      CMP      r0,#0
        0x0800156e:    d17d        }.      BNE      0x800166c ; HAL_RCC_OscConfig + 480
        0x08001570:    e02d        -.      B        0x80015ce ; HAL_RCC_OscConfig + 322
        0x08001572:    e0c9        ..      B        0x8001708 ; HAL_RCC_OscConfig + 636
        0x08001574:    f7fff94e    ..N.    BL       HAL_GetTick ; 0x8000814
        0x08001578:    eba00008    ....    SUB      r0,r0,r8
        0x0800157c:    2802        .(      CMP      r0,#2
        0x0800157e:    d876        v.      BHI      0x800166e ; HAL_RCC_OscConfig + 482
        0x08001580:    6828        (h      LDR      r0,[r5,#0]
        0x08001582:    0780        ..      LSLS     r0,r0,#30
        0x08001584:    d5f6        ..      BPL      0x8001574 ; HAL_RCC_OscConfig + 232
        0x08001586:    6828        (h      LDR      r0,[r5,#0]
        0x08001588:    f0400008    @...    ORR      r0,r0,#8
        0x0800158c:    6028        (`      STR      r0,[r5,#0]
        0x0800158e:    6828        (h      LDR      r0,[r5,#0]
        0x08001590:    6a21        !j      LDR      r1,[r4,#0x20]
        0x08001592:    f02000f0     ...    BIC      r0,r0,#0xf0
        0x08001596:    4308        .C      ORRS     r0,r0,r1
        0x08001598:    6028        (`      STR      r0,[r5,#0]
        0x0800159a:    6868        hh      LDR      r0,[r5,#4]
        0x0800159c:    69e1        .i      LDR      r1,[r4,#0x1c]
        0x0800159e:    f420407f     ..@    BIC      r0,r0,#0xff00
        0x080015a2:    ea402001    @..     ORR      r0,r0,r1,LSL #8
        0x080015a6:    6068        h`      STR      r0,[r5,#4]
        0x080015a8:    e011        ..      B        0x80015ce ; HAL_RCC_OscConfig + 322
        0x080015aa:    e7ff        ..      B        0x80015ac ; HAL_RCC_OscConfig + 288
        0x080015ac:    f0200001     ...    BIC      r0,r0,#1
        0x080015b0:    6028        (`      STR      r0,[r5,#0]
        0x080015b2:    f7fff92f    ../.    BL       HAL_GetTick ; 0x8000814
        0x080015b6:    4680        .F      MOV      r8,r0
        0x080015b8:    e006        ..      B        0x80015c8 ; HAL_RCC_OscConfig + 316
        0x080015ba:    bf00        ..      NOP      
        0x080015bc:    f7fff92a    ..*.    BL       HAL_GetTick ; 0x8000814
        0x080015c0:    eba00008    ....    SUB      r0,r0,r8
        0x080015c4:    2802        .(      CMP      r0,#2
        0x080015c6:    d8da        ..      BHI      0x800157e ; HAL_RCC_OscConfig + 242
        0x080015c8:    6828        (h      LDR      r0,[r5,#0]
        0x080015ca:    0780        ..      LSLS     r0,r0,#30
        0x080015cc:    d4f6        ..      BMI      0x80015bc ; HAL_RCC_OscConfig + 304
        0x080015ce:    7820         x      LDRB     r0,[r4,#0]
        0x080015d0:    07c0        ..      LSLS     r0,r0,#31
        0x080015d2:    d040        @.      BEQ      0x8001656 ; HAL_RCC_OscConfig + 458
        0x080015d4:    2e08        ..      CMP      r6,#8
        0x080015d6:    d018        ..      BEQ      0x800160a ; HAL_RCC_OscConfig + 382
        0x080015d8:    2e0c        ..      CMP      r6,#0xc
        0x080015da:    d101        ..      BNE      0x80015e0 ; HAL_RCC_OscConfig + 340
        0x080015dc:    2f03        ./      CMP      r7,#3
        0x080015de:    d014        ..      BEQ      0x800160a ; HAL_RCC_OscConfig + 382
        0x080015e0:    6860        `h      LDR      r0,[r4,#4]
        0x080015e2:    f5b03f80    ...?    CMP      r0,#0x10000
        0x080015e6:    d017        ..      BEQ      0x8001618 ; HAL_RCC_OscConfig + 396
        0x080015e8:    f5b02fa0    .../    CMP      r0,#0x50000
        0x080015ec:    6828        (h      LDR      r0,[r5,#0]
        0x080015ee:    d017        ..      BEQ      0x8001620 ; HAL_RCC_OscConfig + 404
        0x080015f0:    f4203080     ..0    BIC      r0,r0,#0x10000
        0x080015f4:    6028        (`      STR      r0,[r5,#0]
        0x080015f6:    6828        (h      LDR      r0,[r5,#0]
        0x080015f8:    f4202080     ..     BIC      r0,r0,#0x40000
        0x080015fc:    6028        (`      STR      r0,[r5,#0]
        0x080015fe:    6860        `h      LDR      r0,[r4,#4]
        0x08001600:    b1e0        ..      CBZ      r0,0x800163c ; HAL_RCC_OscConfig + 432
        0x08001602:    f7fff907    ....    BL       HAL_GetTick ; 0x8000814
        0x08001606:    4680        .F      MOV      r8,r0
        0x08001608:    e014        ..      B        0x8001634 ; HAL_RCC_OscConfig + 424
        0x0800160a:    6828        (h      LDR      r0,[r5,#0]
        0x0800160c:    0380        ..      LSLS     r0,r0,#14
        0x0800160e:    d522        ".      BPL      0x8001656 ; HAL_RCC_OscConfig + 458
        0x08001610:    6860        `h      LDR      r0,[r4,#4]
        0x08001612:    2800        .(      CMP      r0,#0
        0x08001614:    d078        x.      BEQ      0x8001708 ; HAL_RCC_OscConfig + 636
        0x08001616:    e01e        ..      B        0x8001656 ; HAL_RCC_OscConfig + 458
        0x08001618:    6828        (h      LDR      r0,[r5,#0]
        0x0800161a:    f4403080    @..0    ORR      r0,r0,#0x10000
        0x0800161e:    e7ed        ..      B        0x80015fc ; HAL_RCC_OscConfig + 368
        0x08001620:    f4402080    @..     ORR      r0,r0,#0x40000
        0x08001624:    6028        (`      STR      r0,[r5,#0]
        0x08001626:    e7f7        ..      B        0x8001618 ; HAL_RCC_OscConfig + 396
        0x08001628:    f7fff8f4    ....    BL       HAL_GetTick ; 0x8000814
        0x0800162c:    eba00008    ....    SUB      r0,r0,r8
        0x08001630:    2864        d(      CMP      r0,#0x64
        0x08001632:    d8a4        ..      BHI      0x800157e ; HAL_RCC_OscConfig + 242
        0x08001634:    6828        (h      LDR      r0,[r5,#0]
        0x08001636:    0380        ..      LSLS     r0,r0,#14
        0x08001638:    d5f6        ..      BPL      0x8001628 ; HAL_RCC_OscConfig + 412
        0x0800163a:    e00c        ..      B        0x8001656 ; HAL_RCC_OscConfig + 458
        0x0800163c:    f7fff8ea    ....    BL       HAL_GetTick ; 0x8000814
        0x08001640:    4680        .F      MOV      r8,r0
        0x08001642:    e005        ..      B        0x8001650 ; HAL_RCC_OscConfig + 452
        0x08001644:    f7fff8e6    ....    BL       HAL_GetTick ; 0x8000814
        0x08001648:    eba00008    ....    SUB      r0,r0,r8
        0x0800164c:    2864        d(      CMP      r0,#0x64
        0x0800164e:    d896        ..      BHI      0x800157e ; HAL_RCC_OscConfig + 242
        0x08001650:    6828        (h      LDR      r0,[r5,#0]
        0x08001652:    0380        ..      LSLS     r0,r0,#14
        0x08001654:    d4f6        ..      BMI      0x8001644 ; HAL_RCC_OscConfig + 440
        0x08001656:    7820         x      LDRB     r0,[r4,#0]
        0x08001658:    0780        ..      LSLS     r0,r0,#30
        0x0800165a:    d53b        ;.      BPL      0x80016d4 ; HAL_RCC_OscConfig + 584
        0x0800165c:    2e04        ..      CMP      r6,#4
        0x0800165e:    d011        ..      BEQ      0x8001684 ; HAL_RCC_OscConfig + 504
        0x08001660:    2e0c        ..      CMP      r6,#0xc
        0x08001662:    d101        ..      BNE      0x8001668 ; HAL_RCC_OscConfig + 476
        0x08001664:    2f02        ./      CMP      r7,#2
        0x08001666:    d00d        ..      BEQ      0x8001684 ; HAL_RCC_OscConfig + 504
        0x08001668:    68e0        .h      LDR      r0,[r4,#0xc]
        0x0800166a:    e001        ..      B        0x8001670 ; HAL_RCC_OscConfig + 484
        0x0800166c:    e13e        >.      B        0x80018ec ; HAL_RCC_OscConfig + 1120
        0x0800166e:    e09f        ..      B        0x80017b0 ; HAL_RCC_OscConfig + 804
        0x08001670:    2800        .(      CMP      r0,#0
        0x08001672:    6828        (h      LDR      r0,[r5,#0]
        0x08001674:    d01e        ..      BEQ      0x80016b4 ; HAL_RCC_OscConfig + 552
        0x08001676:    f4407080    @..p    ORR      r0,r0,#0x100
        0x0800167a:    6028        (`      STR      r0,[r5,#0]
        0x0800167c:    f7fff8ca    ....    BL       HAL_GetTick ; 0x8000814
        0x08001680:    4607        .F      MOV      r7,r0
        0x08001682:    e00c        ..      B        0x800169e ; HAL_RCC_OscConfig + 530
        0x08001684:    6828        (h      LDR      r0,[r5,#0]
        0x08001686:    0540        @.      LSLS     r0,r0,#21
        0x08001688:    d50c        ..      BPL      0x80016a4 ; HAL_RCC_OscConfig + 536
        0x0800168a:    68e0        .h      LDR      r0,[r4,#0xc]
        0x0800168c:    2800        .(      CMP      r0,#0
        0x0800168e:    d0c1        ..      BEQ      0x8001614 ; HAL_RCC_OscConfig + 392
        0x08001690:    e008        ..      B        0x80016a4 ; HAL_RCC_OscConfig + 536
        0x08001692:    bf00        ..      NOP      
        0x08001694:    f7fff8be    ....    BL       HAL_GetTick ; 0x8000814
        0x08001698:    1bc0        ..      SUBS     r0,r0,r7
        0x0800169a:    2802        .(      CMP      r0,#2
        0x0800169c:    d893        ..      BHI      0x80015c6 ; HAL_RCC_OscConfig + 314
        0x0800169e:    6828        (h      LDR      r0,[r5,#0]
        0x080016a0:    0540        @.      LSLS     r0,r0,#21
        0x080016a2:    d5f7        ..      BPL      0x8001694 ; HAL_RCC_OscConfig + 520
        0x080016a4:    6868        hh      LDR      r0,[r5,#4]
        0x080016a6:    7c21        !|      LDRB     r1,[r4,#0x10]
        0x080016a8:    f02050f8     ..P    BIC      r0,r0,#0x1f000000
        0x080016ac:    ea406001    @..`    ORR      r0,r0,r1,LSL #24
        0x080016b0:    6068        h`      STR      r0,[r5,#4]
        0x080016b2:    e00f        ..      B        0x80016d4 ; HAL_RCC_OscConfig + 584
        0x080016b4:    f4207080     ..p    BIC      r0,r0,#0x100
        0x080016b8:    6028        (`      STR      r0,[r5,#0]
        0x080016ba:    f7fff8ab    ....    BL       HAL_GetTick ; 0x8000814
        0x080016be:    4607        .F      MOV      r7,r0
        0x080016c0:    e005        ..      B        0x80016ce ; HAL_RCC_OscConfig + 578
        0x080016c2:    bf00        ..      NOP      
        0x080016c4:    f7fff8a6    ....    BL       HAL_GetTick ; 0x8000814
        0x080016c8:    1bc0        ..      SUBS     r0,r0,r7
        0x080016ca:    2802        .(      CMP      r0,#2
        0x080016cc:    d870        p.      BHI      0x80017b0 ; HAL_RCC_OscConfig + 804
        0x080016ce:    6828        (h      LDR      r0,[r5,#0]
        0x080016d0:    0540        @.      LSLS     r0,r0,#21
        0x080016d2:    d4f7        ..      BMI      0x80016c4 ; HAL_RCC_OscConfig + 568
        0x080016d4:    7820         x      LDRB     r0,[r4,#0]
        0x080016d6:    0700        ..      LSLS     r0,r0,#28
        0x080016d8:    d529        ).      BPL      0x800172e ; HAL_RCC_OscConfig + 674
        0x080016da:    6960        `i      LDR      r0,[r4,#0x14]
        0x080016dc:    2800        .(      CMP      r0,#0
        0x080016de:    f8d50094    ....    LDR      r0,[r5,#0x94]
        0x080016e2:    d012        ..      BEQ      0x800170a ; HAL_RCC_OscConfig + 638
        0x080016e4:    f0400001    @...    ORR      r0,r0,#1
        0x080016e8:    f8c50094    ....    STR      r0,[r5,#0x94]
        0x080016ec:    f7fff892    ....    BL       HAL_GetTick ; 0x8000814
        0x080016f0:    4607        .F      MOV      r7,r0
        0x080016f2:    e004        ..      B        0x80016fe ; HAL_RCC_OscConfig + 626
        0x080016f4:    f7fff88e    ....    BL       HAL_GetTick ; 0x8000814
        0x080016f8:    1bc0        ..      SUBS     r0,r0,r7
        0x080016fa:    2802        .(      CMP      r0,#2
        0x080016fc:    d858        X.      BHI      0x80017b0 ; HAL_RCC_OscConfig + 804
        0x080016fe:    f8d50094    ....    LDR      r0,[r5,#0x94]
        0x08001702:    0780        ..      LSLS     r0,r0,#30
        0x08001704:    d5f6        ..      BPL      0x80016f4 ; HAL_RCC_OscConfig + 616
        0x08001706:    e012        ..      B        0x800172e ; HAL_RCC_OscConfig + 674
        0x08001708:    e129        ).      B        0x800195e ; HAL_RCC_OscConfig + 1234
        0x0800170a:    f0200001     ...    BIC      r0,r0,#1
        0x0800170e:    f8c50094    ....    STR      r0,[r5,#0x94]
        0x08001712:    f7fff87f    ....    BL       HAL_GetTick ; 0x8000814
        0x08001716:    4607        .F      MOV      r7,r0
        0x08001718:    e005        ..      B        0x8001726 ; HAL_RCC_OscConfig + 666
        0x0800171a:    bf00        ..      NOP      
        0x0800171c:    f7fff87a    ..z.    BL       HAL_GetTick ; 0x8000814
        0x08001720:    1bc0        ..      SUBS     r0,r0,r7
        0x08001722:    2802        .(      CMP      r0,#2
        0x08001724:    d844        D.      BHI      0x80017b0 ; HAL_RCC_OscConfig + 804
        0x08001726:    f8d50094    ....    LDR      r0,[r5,#0x94]
        0x0800172a:    0780        ..      LSLS     r0,r0,#30
        0x0800172c:    d4f6        ..      BMI      0x800171c ; HAL_RCC_OscConfig + 656
        0x0800172e:    7820         x      LDRB     r0,[r4,#0]
        0x08001730:    0740        @.      LSLS     r0,r0,#29
        0x08001732:    d568        h.      BPL      0x8001806 ; HAL_RCC_OscConfig + 890
        0x08001734:    6da8        .m      LDR      r0,[r5,#0x58]
        0x08001736:    2700        .'      MOVS     r7,#0
        0x08001738:    00c0        ..      LSLS     r0,r0,#3
        0x0800173a:    d408        ..      BMI      0x800174e ; HAL_RCC_OscConfig + 706
        0x0800173c:    6da8        .m      LDR      r0,[r5,#0x58]
        0x0800173e:    f0405080    @..P    ORR      r0,r0,#0x10000000
        0x08001742:    65a8        .e      STR      r0,[r5,#0x58]
        0x08001744:    6da8        .m      LDR      r0,[r5,#0x58]
        0x08001746:    2701        .'      MOVS     r7,#1
        0x08001748:    f0005080    ...P    AND      r0,r0,#0x10000000
        0x0800174c:    9000        ..      STR      r0,[sp,#0]
        0x0800174e:    4853        SH      LDR      r0,[pc,#332] ; [0x800189c] = 0x40007000
        0x08001750:    6801        .h      LDR      r1,[r0,#0]
        0x08001752:    05c9        ..      LSLS     r1,r1,#23
        0x08001754:    d412        ..      BMI      0x800177c ; HAL_RCC_OscConfig + 752
        0x08001756:    6801        .h      LDR      r1,[r0,#0]
        0x08001758:    4681        .F      MOV      r9,r0
        0x0800175a:    f4417180    A..q    ORR      r1,r1,#0x100
        0x0800175e:    6001        .`      STR      r1,[r0,#0]
        0x08001760:    f7fff858    ..X.    BL       HAL_GetTick ; 0x8000814
        0x08001764:    4680        .F      MOV      r8,r0
        0x08001766:    e005        ..      B        0x8001774 ; HAL_RCC_OscConfig + 744
        0x08001768:    f7fff854    ..T.    BL       HAL_GetTick ; 0x8000814
        0x0800176c:    eba00008    ....    SUB      r0,r0,r8
        0x08001770:    2802        .(      CMP      r0,#2
        0x08001772:    d81d        ..      BHI      0x80017b0 ; HAL_RCC_OscConfig + 804
        0x08001774:    f8d90000    ....    LDR      r0,[r9,#0]
        0x08001778:    05c0        ..      LSLS     r0,r0,#23
        0x0800177a:    d5f5        ..      BPL      0x8001768 ; HAL_RCC_OscConfig + 732
        0x0800177c:    68a0        .h      LDR      r0,[r4,#8]
        0x0800177e:    2801        .(      CMP      r0,#1
        0x08001780:    d017        ..      BEQ      0x80017b2 ; HAL_RCC_OscConfig + 806
        0x08001782:    2805        .(      CMP      r0,#5
        0x08001784:    f8d50090    ....    LDR      r0,[r5,#0x90]
        0x08001788:    d018        ..      BEQ      0x80017bc ; HAL_RCC_OscConfig + 816
        0x0800178a:    f0200001     ...    BIC      r0,r0,#1
        0x0800178e:    f8c50090    ....    STR      r0,[r5,#0x90]
        0x08001792:    f8d50090    ....    LDR      r0,[r5,#0x90]
        0x08001796:    f0200004     ...    BIC      r0,r0,#4
        0x0800179a:    bf00        ..      NOP      
        0x0800179c:    f8c50090    ....    STR      r0,[r5,#0x90]
        0x080017a0:    68a0        .h      LDR      r0,[r4,#8]
        0x080017a2:    f2413988    A..9    MOV      r9,#0x1388
        0x080017a6:    b1d0        ..      CBZ      r0,0x80017de ; HAL_RCC_OscConfig + 850
        0x080017a8:    f7fff834    ..4.    BL       HAL_GetTick ; 0x8000814
        0x080017ac:    4680        .F      MOV      r8,r0
        0x080017ae:    e011        ..      B        0x80017d4 ; HAL_RCC_OscConfig + 840
        0x080017b0:    e06b        k.      B        0x800188a ; HAL_RCC_OscConfig + 1022
        0x080017b2:    f8d50090    ....    LDR      r0,[r5,#0x90]
        0x080017b6:    f0400001    @...    ORR      r0,r0,#1
        0x080017ba:    e7ef        ..      B        0x800179c ; HAL_RCC_OscConfig + 784
        0x080017bc:    f0400004    @...    ORR      r0,r0,#4
        0x080017c0:    f8c50090    ....    STR      r0,[r5,#0x90]
        0x080017c4:    e7f5        ..      B        0x80017b2 ; HAL_RCC_OscConfig + 806
        0x080017c6:    bf00        ..      NOP      
        0x080017c8:    f7fff824    ..$.    BL       HAL_GetTick ; 0x8000814
        0x080017cc:    eba00108    ....    SUB      r1,r0,r8
        0x080017d0:    4549        IE      CMP      r1,r9
        0x080017d2:    d85a        Z.      BHI      0x800188a ; HAL_RCC_OscConfig + 1022
        0x080017d4:    f8d50090    ....    LDR      r0,[r5,#0x90]
        0x080017d8:    0780        ..      LSLS     r0,r0,#30
        0x080017da:    d5f5        ..      BPL      0x80017c8 ; HAL_RCC_OscConfig + 828
        0x080017dc:    e00e        ..      B        0x80017fc ; HAL_RCC_OscConfig + 880
        0x080017de:    f7fff819    ....    BL       HAL_GetTick ; 0x8000814
        0x080017e2:    4680        .F      MOV      r8,r0
        0x080017e4:    e006        ..      B        0x80017f4 ; HAL_RCC_OscConfig + 872
        0x080017e6:    bf00        ..      NOP      
        0x080017e8:    f7fff814    ....    BL       HAL_GetTick ; 0x8000814
        0x080017ec:    eba00108    ....    SUB      r1,r0,r8
        0x080017f0:    4549        IE      CMP      r1,r9
        0x080017f2:    d87a        z.      BHI      0x80018ea ; HAL_RCC_OscConfig + 1118
        0x080017f4:    f8d50090    ....    LDR      r0,[r5,#0x90]
        0x080017f8:    0780        ..      LSLS     r0,r0,#30
        0x080017fa:    d4f5        ..      BMI      0x80017e8 ; HAL_RCC_OscConfig + 860
        0x080017fc:    b11f        ..      CBZ      r7,0x8001806 ; HAL_RCC_OscConfig + 890
        0x080017fe:    6da8        .m      LDR      r0,[r5,#0x58]
        0x08001800:    f0205080     ..P    BIC      r0,r0,#0x10000000
        0x08001804:    65a8        .e      STR      r0,[r5,#0x58]
        0x08001806:    6aa0        .j      LDR      r0,[r4,#0x28]
        0x08001808:    b3f0        ..      CBZ      r0,0x8001888 ; HAL_RCC_OscConfig + 1020
        0x0800180a:    2e0c        ..      CMP      r6,#0xc
        0x0800180c:    d075        u.      BEQ      0x80018fa ; HAL_RCC_OscConfig + 1134
        0x0800180e:    2802        .(      CMP      r0,#2
        0x08001810:    6828        (h      LDR      r0,[r5,#0]
        0x08001812:    f0207080     ..p    BIC      r0,r0,#0x1000000
        0x08001816:    6028        (`      STR      r0,[r5,#0]
        0x08001818:    d004        ..      BEQ      0x8001824 ; HAL_RCC_OscConfig + 920
        0x0800181a:    6828        (h      LDR      r0,[r5,#0]
        0x0800181c:    f0105f20    .. _    TST      r0,#0x28000000
        0x08001820:    d051        Q.      BEQ      0x80018c6 ; HAL_RCC_OscConfig + 1082
        0x08001822:    e054        T.      B        0x80018ce ; HAL_RCC_OscConfig + 1090
        0x08001824:    f7fefff6    ....    BL       HAL_GetTick ; 0x8000814
        0x08001828:    4606        .F      MOV      r6,r0
        0x0800182a:    e004        ..      B        0x8001836 ; HAL_RCC_OscConfig + 938
        0x0800182c:    f7fefff2    ....    BL       HAL_GetTick ; 0x8000814
        0x08001830:    1b80        ..      SUBS     r0,r0,r6
        0x08001832:    2802        .(      CMP      r0,#2
        0x08001834:    d859        Y.      BHI      0x80018ea ; HAL_RCC_OscConfig + 1118
        0x08001836:    6828        (h      LDR      r0,[r5,#0]
        0x08001838:    0180        ..      LSLS     r0,r0,#6
        0x0800183a:    d4f7        ..      BMI      0x800182c ; HAL_RCC_OscConfig + 928
        0x0800183c:    e9d4010b    ....    LDRD     r0,r1,[r4,#0x2c]
        0x08001840:    f06f020f    o...    MVN      r2,#0xf
        0x08001844:    eb021101    ....    ADD      r1,r2,r1,LSL #4
        0x08001848:    4308        .C      ORRS     r0,r0,r1
        0x0800184a:    8fa1        ..      LDRH     r1,[r4,#0x3c]
        0x0800184c:    0452        R.      LSLS     r2,r2,#17
        0x0800184e:    0849        I.      LSRS     r1,r1,#1
        0x08001850:    eb025141    ..AQ    ADD      r1,r2,r1,LSL #21
        0x08001854:    6b62        bk      LDR      r2,[r4,#0x34]
        0x08001856:    ea412102    A..!    ORR      r1,r1,r2,LSL #8
        0x0800185a:    4308        .C      ORRS     r0,r0,r1
        0x0800185c:    f8941040    ..@.    LDRB     r1,[r4,#0x40]
        0x08001860:    f04f427e    O.~B    MOV      r2,#0xfe000000
        0x08001864:    0849        I.      LSRS     r1,r1,#1
        0x08001866:    eb026141    ..Aa    ADD      r1,r2,r1,LSL #25
        0x0800186a:    4308        .C      ORRS     r0,r0,r1
        0x0800186c:    6ba1        .k      LDR      r1,[r4,#0x38]
        0x0800186e:    0909        ..      LSRS     r1,r1,#4
        0x08001870:    ea404041    @.A@    ORR      r0,r0,r1,LSL #17
        0x08001874:    68e9        .h      LDR      r1,[r5,#0xc]
        0x08001876:    4a0a        .J      LDR      r2,[pc,#40] ; [0x80018a0] = 0xf99d808c
        0x08001878:    4011        .@      ANDS     r1,r1,r2
        0x0800187a:    4308        .C      ORRS     r0,r0,r1
        0x0800187c:    60e8        .`      STR      r0,[r5,#0xc]
        0x0800187e:    6828        (h      LDR      r0,[r5,#0]
        0x08001880:    f0407080    @..p    ORR      r0,r0,#0x1000000
        0x08001884:    6028        (`      STR      r0,[r5,#0]
        0x08001886:    e00d        ..      B        0x80018a4 ; HAL_RCC_OscConfig + 1048
        0x08001888:    e06b        k.      B        0x8001962 ; HAL_RCC_OscConfig + 1238
        0x0800188a:    e02e        ..      B        0x80018ea ; HAL_RCC_OscConfig + 1118
    $d
        0x0800188c:    40021000    ...@    DCD    1073876992
        0x08001890:    0800386c    l8..    DCD    134232172
        0x08001894:    2000000c    ...     DCD    536870924
        0x08001898:    20000000    ...     DCD    536870912
        0x0800189c:    40007000    .p.@    DCD    1073770496
        0x080018a0:    f99d808c    ....    DCD    4187848844
    $t
        0x080018a4:    68e8        .h      LDR      r0,[r5,#0xc]
        0x080018a6:    f0407080    @..p    ORR      r0,r0,#0x1000000
        0x080018aa:    60e8        .`      STR      r0,[r5,#0xc]
        0x080018ac:    f7feffb2    ....    BL       HAL_GetTick ; 0x8000814
        0x080018b0:    4604        .F      MOV      r4,r0
        0x080018b2:    e004        ..      B        0x80018be ; HAL_RCC_OscConfig + 1074
        0x080018b4:    f7feffae    ....    BL       HAL_GetTick ; 0x8000814
        0x080018b8:    1b00        ..      SUBS     r0,r0,r4
        0x080018ba:    2802        .(      CMP      r0,#2
        0x080018bc:    d815        ..      BHI      0x80018ea ; HAL_RCC_OscConfig + 1118
        0x080018be:    6828        (h      LDR      r0,[r5,#0]
        0x080018c0:    0180        ..      LSLS     r0,r0,#6
        0x080018c2:    d5f7        ..      BPL      0x80018b4 ; HAL_RCC_OscConfig + 1064
        0x080018c4:    e04d        M.      B        0x8001962 ; HAL_RCC_OscConfig + 1238
        0x080018c6:    68e8        .h      LDR      r0,[r5,#0xc]
        0x080018c8:    f0200003     ...    BIC      r0,r0,#3
        0x080018cc:    60e8        .`      STR      r0,[r5,#0xc]
        0x080018ce:    68e8        .h      LDR      r0,[r5,#0xc]
        0x080018d0:    4925        %I      LDR      r1,[pc,#148] ; [0x8001968] = 0xfeeeffff
        0x080018d2:    4008        .@      ANDS     r0,r0,r1
        0x080018d4:    60e8        .`      STR      r0,[r5,#0xc]
        0x080018d6:    f7feff9d    ....    BL       HAL_GetTick ; 0x8000814
        0x080018da:    4604        .F      MOV      r4,r0
        0x080018dc:    e009        ..      B        0x80018f2 ; HAL_RCC_OscConfig + 1126
        0x080018de:    bf00        ..      NOP      
        0x080018e0:    f7feff98    ....    BL       HAL_GetTick ; 0x8000814
        0x080018e4:    1b00        ..      SUBS     r0,r0,r4
        0x080018e6:    2802        .(      CMP      r0,#2
        0x080018e8:    d903        ..      BLS      0x80018f2 ; HAL_RCC_OscConfig + 1126
        0x080018ea:    2003        .       MOVS     r0,#3
        0x080018ec:    e8bd83f8    ....    POP      {r3-r9,pc}
        0x080018f0:    e003        ..      B        0x80018fa ; HAL_RCC_OscConfig + 1134
        0x080018f2:    6828        (h      LDR      r0,[r5,#0]
        0x080018f4:    0180        ..      LSLS     r0,r0,#6
        0x080018f6:    d4f3        ..      BMI      0x80018e0 ; HAL_RCC_OscConfig + 1108
        0x080018f8:    e033        3.      B        0x8001962 ; HAL_RCC_OscConfig + 1238
        0x080018fa:    2801        .(      CMP      r0,#1
        0x080018fc:    d0f6        ..      BEQ      0x80018ec ; HAL_RCC_OscConfig + 1120
        0x080018fe:    68e8        .h      LDR      r0,[r5,#0xc]
        0x08001900:    6ae2        .j      LDR      r2,[r4,#0x2c]
        0x08001902:    f0000103    ....    AND      r1,r0,#3
        0x08001906:    4291        .B      CMP      r1,r2
        0x08001908:    d129        ).      BNE      0x800195e ; HAL_RCC_OscConfig + 1234
        0x0800190a:    6b21        !k      LDR      r1,[r4,#0x30]
        0x0800190c:    f0000270    ..p.    AND      r2,r0,#0x70
        0x08001910:    0109        ..      LSLS     r1,r1,#4
        0x08001912:    3910        .9      SUBS     r1,r1,#0x10
        0x08001914:    4291        .B      CMP      r1,r2
        0x08001916:    d122        ".      BNE      0x800195e ; HAL_RCC_OscConfig + 1234
        0x08001918:    6b62        bk      LDR      r2,[r4,#0x34]
        0x0800191a:    f40041fe    ...A    AND      r1,r0,#0x7f00
        0x0800191e:    ebb12f02    .../    CMP      r1,r2,LSL #8
        0x08001922:    d11c        ..      BNE      0x800195e ; HAL_RCC_OscConfig + 1234
        0x08001924:    6ba2        .k      LDR      r2,[r4,#0x38]
        0x08001926:    f4003100    ...1    AND      r1,r0,#0x20000
        0x0800192a:    2a07        .*      CMP      r2,#7
        0x0800192c:    d001        ..      BEQ      0x8001932 ; HAL_RCC_OscConfig + 1190
        0x0800192e:    2201        ."      MOVS     r2,#1
        0x08001930:    e000        ..      B        0x8001934 ; HAL_RCC_OscConfig + 1192
        0x08001932:    2200        ."      MOVS     r2,#0
        0x08001934:    4291        .B      CMP      r1,r2
        0x08001936:    d112        ..      BNE      0x800195e ; HAL_RCC_OscConfig + 1234
        0x08001938:    8fa1        ..      LDRH     r1,[r4,#0x3c]
        0x0800193a:    f40002c0    ....    AND      r2,r0,#0x600000
        0x0800193e:    0849        I.      LSRS     r1,r1,#1
        0x08001940:    0549        I.      LSLS     r1,r1,#21
        0x08001942:    f5a11100    ....    SUB      r1,r1,#0x200000
        0x08001946:    4291        .B      CMP      r1,r2
        0x08001948:    d109        ..      BNE      0x800195e ; HAL_RCC_OscConfig + 1234
        0x0800194a:    f8941040    ..@.    LDRB     r1,[r4,#0x40]
        0x0800194e:    f00060c0    ...`    AND      r0,r0,#0x6000000
        0x08001952:    0849        I.      LSRS     r1,r1,#1
        0x08001954:    0649        I.      LSLS     r1,r1,#25
        0x08001956:    f1a17100    ...q    SUB      r1,r1,#0x2000000
        0x0800195a:    4281        .B      CMP      r1,r0
        0x0800195c:    d001        ..      BEQ      0x8001962 ; HAL_RCC_OscConfig + 1238
        0x0800195e:    2001        .       MOVS     r0,#1
        0x08001960:    e7c4        ..      B        0x80018ec ; HAL_RCC_OscConfig + 1120
        0x08001962:    2000        .       MOVS     r0,#0
        0x08001964:    e7c2        ..      B        0x80018ec ; HAL_RCC_OscConfig + 1120
    $d
        0x08001966:    0000        ..      DCW    0
        0x08001968:    feeeffff    ....    DCD    4277075967
    $t
    i.HAL_SYSTICK_Config
    HAL_SYSTICK_Config
        0x0800196c:    b510        ..      PUSH     {r4,lr}
        0x0800196e:    1e40        @.      SUBS     r0,r0,#1
        0x08001970:    f1b07f80    ....    CMP      r0,#0x1000000
        0x08001974:    d301        ..      BCC      0x800197a ; HAL_SYSTICK_Config + 14
        0x08001976:    2001        .       MOVS     r0,#1
        0x08001978:    bd10        ..      POP      {r4,pc}
        0x0800197a:    f04f24e0    O..$    MOV      r4,#0xe000e000
        0x0800197e:    6160        `a      STR      r0,[r4,#0x14]
        0x08001980:    210f        .!      MOVS     r1,#0xf
        0x08001982:    1760        `.      ASRS     r0,r4,#29
        0x08001984:    f001fd4e    ..N.    BL       __NVIC_SetPriority ; 0x8003424
        0x08001988:    2000        .       MOVS     r0,#0
        0x0800198a:    61a0        .a      STR      r0,[r4,#0x18]
        0x0800198c:    2007        .       MOVS     r0,#7
        0x0800198e:    6120         a      STR      r0,[r4,#0x10]
        0x08001990:    2000        .       MOVS     r0,#0
        0x08001992:    bd10        ..      POP      {r4,pc}
    i.HAL_TIMEx_MasterConfigSynchronization
    HAL_TIMEx_MasterConfigSynchronization
        0x08001994:    b570        p.      PUSH     {r4-r6,lr}
        0x08001996:    f890203c    ..<     LDRB     r2,[r0,#0x3c]
        0x0800199a:    2a01        .*      CMP      r2,#1
        0x0800199c:    d024        $.      BEQ      0x80019e8 ; HAL_TIMEx_MasterConfigSynchronization + 84
        0x0800199e:    2401        .$      MOVS     r4,#1
        0x080019a0:    f880403c    ..<@    STRB     r4,[r0,#0x3c]
        0x080019a4:    2202        ."      MOVS     r2,#2
        0x080019a6:    f880203d    ..=     STRB     r2,[r0,#0x3d]
        0x080019aa:    6802        .h      LDR      r2,[r0,#0]
        0x080019ac:    6853        Sh      LDR      r3,[r2,#4]
        0x080019ae:    6895        .h      LDR      r5,[r2,#8]
        0x080019b0:    4e0e        .N      LDR      r6,[pc,#56] ; [0x80019ec] = 0x40012c00
        0x080019b2:    42b2        .B      CMP      r2,r6
        0x080019b4:    d002        ..      BEQ      0x80019bc ; HAL_TIMEx_MasterConfigSynchronization + 40
        0x080019b6:    4e0e        .N      LDR      r6,[pc,#56] ; [0x80019f0] = 0x40013400
        0x080019b8:    42b2        .B      CMP      r2,r6
        0x080019ba:    d103        ..      BNE      0x80019c4 ; HAL_TIMEx_MasterConfigSynchronization + 48
        0x080019bc:    f4230670    #.p.    BIC      r6,r3,#0xf00000
        0x080019c0:    684b        Kh      LDR      r3,[r1,#4]
        0x080019c2:    4333        3C      ORRS     r3,r3,r6
        0x080019c4:    f0230670    #.p.    BIC      r6,r3,#0x70
        0x080019c8:    680b        .h      LDR      r3,[r1,#0]
        0x080019ca:    6889        .h      LDR      r1,[r1,#8]
        0x080019cc:    4333        3C      ORRS     r3,r3,r6
        0x080019ce:    f0250580    %...    BIC      r5,r5,#0x80
        0x080019d2:    4329        )C      ORRS     r1,r1,r5
        0x080019d4:    6053        S`      STR      r3,[r2,#4]
        0x080019d6:    6802        .h      LDR      r2,[r0,#0]
        0x080019d8:    6091        .`      STR      r1,[r2,#8]
        0x080019da:    f880403d    ..=@    STRB     r4,[r0,#0x3d]
        0x080019de:    2100        .!      MOVS     r1,#0
        0x080019e0:    f880103c    ..<.    STRB     r1,[r0,#0x3c]
        0x080019e4:    4608        .F      MOV      r0,r1
        0x080019e6:    bd70        p.      POP      {r4-r6,pc}
        0x080019e8:    2002        .       MOVS     r0,#2
        0x080019ea:    bd70        p.      POP      {r4-r6,pc}
    $d
        0x080019ec:    40012c00    .,.@    DCD    1073818624
        0x080019f0:    40013400    .4.@    DCD    1073820672
    $t
    i.HAL_TIM_Base_Init
    HAL_TIM_Base_Init
        0x080019f4:    b510        ..      PUSH     {r4,lr}
        0x080019f6:    0004        ..      MOVS     r4,r0
        0x080019f8:    d003        ..      BEQ      0x8001a02 ; HAL_TIM_Base_Init + 14
        0x080019fa:    f894003d    ..=.    LDRB     r0,[r4,#0x3d]
        0x080019fe:    b110        ..      CBZ      r0,0x8001a06 ; HAL_TIM_Base_Init + 18
        0x08001a00:    e007        ..      B        0x8001a12 ; HAL_TIM_Base_Init + 30
        0x08001a02:    2001        .       MOVS     r0,#1
        0x08001a04:    bd10        ..      POP      {r4,pc}
        0x08001a06:    2000        .       MOVS     r0,#0
        0x08001a08:    f884003c    ..<.    STRB     r0,[r4,#0x3c]
        0x08001a0c:    4620         F      MOV      r0,r4
        0x08001a0e:    f000f80d    ....    BL       HAL_TIM_Base_MspInit ; 0x8001a2c
        0x08001a12:    2002        .       MOVS     r0,#2
        0x08001a14:    f884003d    ..=.    STRB     r0,[r4,#0x3d]
        0x08001a18:    1d21        !.      ADDS     r1,r4,#4
        0x08001a1a:    6820         h      LDR      r0,[r4,#0]
        0x08001a1c:    f001fa2c    ..,.    BL       TIM_Base_SetConfig ; 0x8002e78
        0x08001a20:    2001        .       MOVS     r0,#1
        0x08001a22:    f884003d    ..=.    STRB     r0,[r4,#0x3d]
        0x08001a26:    2000        .       MOVS     r0,#0
        0x08001a28:    bd10        ..      POP      {r4,pc}
        0x08001a2a:    0000        ..      MOVS     r0,r0
    i.HAL_TIM_Base_MspInit
    HAL_TIM_Base_MspInit
        0x08001a2c:    b508        ..      PUSH     {r3,lr}
        0x08001a2e:    6800        .h      LDR      r0,[r0,#0]
        0x08001a30:    f1b04f80    ...O    CMP      r0,#0x40000000
        0x08001a34:    d112        ..      BNE      0x8001a5c ; HAL_TIM_Base_MspInit + 48
        0x08001a36:    480a        .H      LDR      r0,[pc,#40] ; [0x8001a60] = 0x40021000
        0x08001a38:    6d81        .m      LDR      r1,[r0,#0x58]
        0x08001a3a:    f0410101    A...    ORR      r1,r1,#1
        0x08001a3e:    6581        .e      STR      r1,[r0,#0x58]
        0x08001a40:    6d80        .m      LDR      r0,[r0,#0x58]
        0x08001a42:    2200        ."      MOVS     r2,#0
        0x08001a44:    f0000001    ....    AND      r0,r0,#1
        0x08001a48:    9000        ..      STR      r0,[sp,#0]
        0x08001a4a:    4611        .F      MOV      r1,r2
        0x08001a4c:    201c        .       MOVS     r0,#0x1c
        0x08001a4e:    f7fff9d1    ....    BL       HAL_NVIC_SetPriority ; 0x8000df4
        0x08001a52:    e8bd4008    ...@    POP      {r3,lr}
        0x08001a56:    201c        .       MOVS     r0,#0x1c
        0x08001a58:    f7ffb9be    ....    B        HAL_NVIC_EnableIRQ ; 0x8000dd8
        0x08001a5c:    bd08        ..      POP      {r3,pc}
    $d
        0x08001a5e:    0000        ..      DCW    0
        0x08001a60:    40021000    ...@    DCD    1073876992
    $t
    i.HAL_TIM_ConfigClockSource
    HAL_TIM_ConfigClockSource
        0x08001a64:    b570        p.      PUSH     {r4-r6,lr}
        0x08001a66:    4604        .F      MOV      r4,r0
        0x08001a68:    f890003c    ..<.    LDRB     r0,[r0,#0x3c]
        0x08001a6c:    2801        .(      CMP      r0,#1
        0x08001a6e:    d017        ..      BEQ      0x8001aa0 ; HAL_TIM_ConfigClockSource + 60
        0x08001a70:    2501        .%      MOVS     r5,#1
        0x08001a72:    f884503c    ..<P    STRB     r5,[r4,#0x3c]
        0x08001a76:    2002        .       MOVS     r0,#2
        0x08001a78:    f884003d    ..=.    STRB     r0,[r4,#0x3d]
        0x08001a7c:    6822        "h      LDR      r2,[r4,#0]
        0x08001a7e:    6890        .h      LDR      r0,[r2,#8]
        0x08001a80:    4b2e        .K      LDR      r3,[pc,#184] ; [0x8001b3c] = 0xfffeff88
        0x08001a82:    4018        .@      ANDS     r0,r0,r3
        0x08001a84:    f420407f     ..@    BIC      r0,r0,#0xff00
        0x08001a88:    6090        .`      STR      r0,[r2,#8]
        0x08001a8a:    6808        .h      LDR      r0,[r1,#0]
        0x08001a8c:    2850        P(      CMP      r0,#0x50
        0x08001a8e:    d030        0.      BEQ      0x8001af2 ; HAL_TIM_ConfigClockSource + 142
        0x08001a90:    dc0d        ..      BGT      0x8001aae ; HAL_TIM_ConfigClockSource + 74
        0x08001a92:    2820         (      CMP      r0,#0x20
        0x08001a94:    d04d        M.      BEQ      0x8001b32 ; HAL_TIM_ConfigClockSource + 206
        0x08001a96:    dc05        ..      BGT      0x8001aa4 ; HAL_TIM_ConfigClockSource + 64
        0x08001a98:    b398        ..      CBZ      r0,0x8001b02 ; HAL_TIM_ConfigClockSource + 158
        0x08001a9a:    2810        .(      CMP      r0,#0x10
        0x08001a9c:    d13b        ;.      BNE      0x8001b16 ; HAL_TIM_ConfigClockSource + 178
        0x08001a9e:    e048        H.      B        0x8001b32 ; HAL_TIM_ConfigClockSource + 206
        0x08001aa0:    2002        .       MOVS     r0,#2
        0x08001aa2:    bd70        p.      POP      {r4-r6,pc}
        0x08001aa4:    2830        0(      CMP      r0,#0x30
        0x08001aa6:    d044        D.      BEQ      0x8001b32 ; HAL_TIM_ConfigClockSource + 206
        0x08001aa8:    2840        @(      CMP      r0,#0x40
        0x08001aaa:    d134        4.      BNE      0x8001b16 ; HAL_TIM_ConfigClockSource + 178
        0x08001aac:    e039        9.      B        0x8001b22 ; HAL_TIM_ConfigClockSource + 190
        0x08001aae:    2860        `(      CMP      r0,#0x60
        0x08001ab0:    d028        (.      BEQ      0x8001b04 ; HAL_TIM_ConfigClockSource + 160
        0x08001ab2:    2870        p(      CMP      r0,#0x70
        0x08001ab4:    d006        ..      BEQ      0x8001ac4 ; HAL_TIM_ConfigClockSource + 96
        0x08001ab6:    f5b05f80    ..._    CMP      r0,#0x1000
        0x08001aba:    d02c        ,.      BEQ      0x8001b16 ; HAL_TIM_ConfigClockSource + 178
        0x08001abc:    f5b05f00    ..._    CMP      r0,#0x2000
        0x08001ac0:    d129        ).      BNE      0x8001b16 ; HAL_TIM_ConfigClockSource + 178
        0x08001ac2:    e00a        ..      B        0x8001ada ; HAL_TIM_ConfigClockSource + 118
        0x08001ac4:    68cb        .h      LDR      r3,[r1,#0xc]
        0x08001ac6:    e9d12101    ...!    LDRD     r2,r1,[r1,#4]
        0x08001aca:    6820         h      LDR      r0,[r4,#0]
        0x08001acc:    f001fa41    ..A.    BL       TIM_ETR_SetConfig ; 0x8002f52
        0x08001ad0:    6820         h      LDR      r0,[r4,#0]
        0x08001ad2:    6881        .h      LDR      r1,[r0,#8]
        0x08001ad4:    f0410177    A.w.    ORR      r1,r1,#0x77
        0x08001ad8:    e009        ..      B        0x8001aee ; HAL_TIM_ConfigClockSource + 138
        0x08001ada:    68cb        .h      LDR      r3,[r1,#0xc]
        0x08001adc:    e9d12101    ...!    LDRD     r2,r1,[r1,#4]
        0x08001ae0:    6820         h      LDR      r0,[r4,#0]
        0x08001ae2:    f001fa36    ..6.    BL       TIM_ETR_SetConfig ; 0x8002f52
        0x08001ae6:    6820         h      LDR      r0,[r4,#0]
        0x08001ae8:    6881        .h      LDR      r1,[r0,#8]
        0x08001aea:    f4414180    A..A    ORR      r1,r1,#0x4000
        0x08001aee:    6081        .`      STR      r1,[r0,#8]
        0x08001af0:    e011        ..      B        0x8001b16 ; HAL_TIM_ConfigClockSource + 178
        0x08001af2:    68ca        .h      LDR      r2,[r1,#0xc]
        0x08001af4:    6849        Ih      LDR      r1,[r1,#4]
        0x08001af6:    6820         h      LDR      r0,[r4,#0]
        0x08001af8:    f001fa3d    ..=.    BL       TIM_TI1_ConfigInputStage ; 0x8002f76
        0x08001afc:    2150        P!      MOVS     r1,#0x50
        0x08001afe:    6820         h      LDR      r0,[r4,#0]
        0x08001b00:    e007        ..      B        0x8001b12 ; HAL_TIM_ConfigClockSource + 174
        0x08001b02:    e016        ..      B        0x8001b32 ; HAL_TIM_ConfigClockSource + 206
        0x08001b04:    68ca        .h      LDR      r2,[r1,#0xc]
        0x08001b06:    6849        Ih      LDR      r1,[r1,#4]
        0x08001b08:    6820         h      LDR      r0,[r4,#0]
        0x08001b0a:    f001fa45    ..E.    BL       TIM_TI2_ConfigInputStage ; 0x8002f98
        0x08001b0e:    2160        `!      MOVS     r1,#0x60
        0x08001b10:    6820         h      LDR      r0,[r4,#0]
        0x08001b12:    f001fa28    ..(.    BL       TIM_ITRx_SetConfig ; 0x8002f66
        0x08001b16:    f884503d    ..=P    STRB     r5,[r4,#0x3d]
        0x08001b1a:    2000        .       MOVS     r0,#0
        0x08001b1c:    f884003c    ..<.    STRB     r0,[r4,#0x3c]
        0x08001b20:    bd70        p.      POP      {r4-r6,pc}
        0x08001b22:    68ca        .h      LDR      r2,[r1,#0xc]
        0x08001b24:    6849        Ih      LDR      r1,[r1,#4]
        0x08001b26:    6820         h      LDR      r0,[r4,#0]
        0x08001b28:    f001fa25    ..%.    BL       TIM_TI1_ConfigInputStage ; 0x8002f76
        0x08001b2c:    2140        @!      MOVS     r1,#0x40
        0x08001b2e:    6820         h      LDR      r0,[r4,#0]
        0x08001b30:    e7ef        ..      B        0x8001b12 ; HAL_TIM_ConfigClockSource + 174
        0x08001b32:    6822        "h      LDR      r2,[r4,#0]
        0x08001b34:    4601        .F      MOV      r1,r0
        0x08001b36:    4610        .F      MOV      r0,r2
        0x08001b38:    e7eb        ..      B        0x8001b12 ; HAL_TIM_ConfigClockSource + 174
    $d
        0x08001b3a:    0000        ..      DCW    0
        0x08001b3c:    fffeff88    ....    DCD    4294901640
    $t
    i.HAL_TIM_OC_Start_IT
    HAL_TIM_OC_Start_IT
        0x08001b40:    b510        ..      PUSH     {r4,lr}
        0x08001b42:    6802        .h      LDR      r2,[r0,#0]
        0x08001b44:    4604        .F      MOV      r4,r0
        0x08001b46:    b131        1.      CBZ      r1,0x8001b56 ; HAL_TIM_OC_Start_IT + 22
        0x08001b48:    2904        .)      CMP      r1,#4
        0x08001b4a:    d008        ..      BEQ      0x8001b5e ; HAL_TIM_OC_Start_IT + 30
        0x08001b4c:    2908        .)      CMP      r1,#8
        0x08001b4e:    d031        1.      BEQ      0x8001bb4 ; HAL_TIM_OC_Start_IT + 116
        0x08001b50:    290c        .)      CMP      r1,#0xc
        0x08001b52:    d108        ..      BNE      0x8001b66 ; HAL_TIM_OC_Start_IT + 38
        0x08001b54:    e032        2.      B        0x8001bbc ; HAL_TIM_OC_Start_IT + 124
        0x08001b56:    68d0        .h      LDR      r0,[r2,#0xc]
        0x08001b58:    f0400002    @...    ORR      r0,r0,#2
        0x08001b5c:    e002        ..      B        0x8001b64 ; HAL_TIM_OC_Start_IT + 36
        0x08001b5e:    68d0        .h      LDR      r0,[r2,#0xc]
        0x08001b60:    f0400004    @...    ORR      r0,r0,#4
        0x08001b64:    60d0        .`      STR      r0,[r2,#0xc]
        0x08001b66:    2201        ."      MOVS     r2,#1
        0x08001b68:    6820         h      LDR      r0,[r4,#0]
        0x08001b6a:    f001f9e5    ....    BL       TIM_CCxChannelCmd ; 0x8002f38
        0x08001b6e:    4815        .H      LDR      r0,[pc,#84] ; [0x8001bc4] = 0x40012c00
        0x08001b70:    6821        !h      LDR      r1,[r4,#0]
        0x08001b72:    4281        .B      CMP      r1,r0
        0x08001b74:    d00b        ..      BEQ      0x8001b8e ; HAL_TIM_OC_Start_IT + 78
        0x08001b76:    4814        .H      LDR      r0,[pc,#80] ; [0x8001bc8] = 0x40013400
        0x08001b78:    4281        .B      CMP      r1,r0
        0x08001b7a:    d008        ..      BEQ      0x8001b8e ; HAL_TIM_OC_Start_IT + 78
        0x08001b7c:    4813        .H      LDR      r0,[pc,#76] ; [0x8001bcc] = 0x40014000
        0x08001b7e:    4281        .B      CMP      r1,r0
        0x08001b80:    d005        ..      BEQ      0x8001b8e ; HAL_TIM_OC_Start_IT + 78
        0x08001b82:    4813        .H      LDR      r0,[pc,#76] ; [0x8001bd0] = 0x40014400
        0x08001b84:    4281        .B      CMP      r1,r0
        0x08001b86:    d002        ..      BEQ      0x8001b8e ; HAL_TIM_OC_Start_IT + 78
        0x08001b88:    4812        .H      LDR      r0,[pc,#72] ; [0x8001bd4] = 0x40014800
        0x08001b8a:    4281        .B      CMP      r1,r0
        0x08001b8c:    d103        ..      BNE      0x8001b96 ; HAL_TIM_OC_Start_IT + 86
        0x08001b8e:    6c48        Hl      LDR      r0,[r1,#0x44]
        0x08001b90:    f4404000    @..@    ORR      r0,r0,#0x8000
        0x08001b94:    6448        Hd      STR      r0,[r1,#0x44]
        0x08001b96:    6820         h      LDR      r0,[r4,#0]
        0x08001b98:    6881        .h      LDR      r1,[r0,#8]
        0x08001b9a:    4a0f        .J      LDR      r2,[pc,#60] ; [0x8001bd8] = 0x10007
        0x08001b9c:    4011        .@      ANDS     r1,r1,r2
        0x08001b9e:    2906        .)      CMP      r1,#6
        0x08001ba0:    d006        ..      BEQ      0x8001bb0 ; HAL_TIM_OC_Start_IT + 112
        0x08001ba2:    f5b13f80    ...?    CMP      r1,#0x10000
        0x08001ba6:    d003        ..      BEQ      0x8001bb0 ; HAL_TIM_OC_Start_IT + 112
        0x08001ba8:    6801        .h      LDR      r1,[r0,#0]
        0x08001baa:    f0410101    A...    ORR      r1,r1,#1
        0x08001bae:    6001        .`      STR      r1,[r0,#0]
        0x08001bb0:    2000        .       MOVS     r0,#0
        0x08001bb2:    bd10        ..      POP      {r4,pc}
        0x08001bb4:    68d0        .h      LDR      r0,[r2,#0xc]
        0x08001bb6:    f0400008    @...    ORR      r0,r0,#8
        0x08001bba:    e7d3        ..      B        0x8001b64 ; HAL_TIM_OC_Start_IT + 36
        0x08001bbc:    68d0        .h      LDR      r0,[r2,#0xc]
        0x08001bbe:    f0400010    @...    ORR      r0,r0,#0x10
        0x08001bc2:    e7cf        ..      B        0x8001b64 ; HAL_TIM_OC_Start_IT + 36
    $d
        0x08001bc4:    40012c00    .,.@    DCD    1073818624
        0x08001bc8:    40013400    .4.@    DCD    1073820672
        0x08001bcc:    40014000    .@.@    DCD    1073823744
        0x08001bd0:    40014400    .D.@    DCD    1073824768
        0x08001bd4:    40014800    .H.@    DCD    1073825792
        0x08001bd8:    00010007    ....    DCD    65543
    $t
    i.HAL_UART_Init
    HAL_UART_Init
        0x08001bdc:    b510        ..      PUSH     {r4,lr}
        0x08001bde:    0004        ..      MOVS     r4,r0
        0x08001be0:    d002        ..      BEQ      0x8001be8 ; HAL_UART_Init + 12
        0x08001be2:    6f60        `o      LDR      r0,[r4,#0x74]
        0x08001be4:    b110        ..      CBZ      r0,0x8001bec ; HAL_UART_Init + 16
        0x08001be6:    e007        ..      B        0x8001bf8 ; HAL_UART_Init + 28
        0x08001be8:    2001        .       MOVS     r0,#1
        0x08001bea:    bd10        ..      POP      {r4,pc}
        0x08001bec:    2000        .       MOVS     r0,#0
        0x08001bee:    f8840070    ..p.    STRB     r0,[r4,#0x70]
        0x08001bf2:    4620         F      MOV      r0,r4
        0x08001bf4:    f000f826    ..&.    BL       HAL_UART_MspInit ; 0x8001c44
        0x08001bf8:    2024        $       MOVS     r0,#0x24
        0x08001bfa:    6760        `g      STR      r0,[r4,#0x74]
        0x08001bfc:    6820         h      LDR      r0,[r4,#0]
        0x08001bfe:    6801        .h      LDR      r1,[r0,#0]
        0x08001c00:    f0210101    !...    BIC      r1,r1,#1
        0x08001c04:    6001        .`      STR      r1,[r0,#0]
        0x08001c06:    4620         F      MOV      r0,r4
        0x08001c08:    f001fa68    ..h.    BL       UART_SetConfig ; 0x80030dc
        0x08001c0c:    2801        .(      CMP      r0,#1
        0x08001c0e:    d0ec        ..      BEQ      0x8001bea ; HAL_UART_Init + 14
        0x08001c10:    6a60        `j      LDR      r0,[r4,#0x24]
        0x08001c12:    b110        ..      CBZ      r0,0x8001c1a ; HAL_UART_Init + 62
        0x08001c14:    4620         F      MOV      r0,r4
        0x08001c16:    f001f9d1    ....    BL       UART_AdvFeatureConfig ; 0x8002fbc
        0x08001c1a:    6820         h      LDR      r0,[r4,#0]
        0x08001c1c:    6841        Ah      LDR      r1,[r0,#4]
        0x08001c1e:    f4214190    !..A    BIC      r1,r1,#0x4800
        0x08001c22:    6041        A`      STR      r1,[r0,#4]
        0x08001c24:    6820         h      LDR      r0,[r4,#0]
        0x08001c26:    6881        .h      LDR      r1,[r0,#8]
        0x08001c28:    f021012a    !.*.    BIC      r1,r1,#0x2a
        0x08001c2c:    6081        .`      STR      r1,[r0,#8]
        0x08001c2e:    6820         h      LDR      r0,[r4,#0]
        0x08001c30:    6801        .h      LDR      r1,[r0,#0]
        0x08001c32:    f0410101    A...    ORR      r1,r1,#1
        0x08001c36:    6001        .`      STR      r1,[r0,#0]
        0x08001c38:    4620         F      MOV      r0,r4
        0x08001c3a:    e8bd4010    ...@    POP      {r4,lr}
        0x08001c3e:    f001ba21    ..!.    B.W      UART_CheckIdleState ; 0x8003084
        0x08001c42:    0000        ..      MOVS     r0,r0
    i.HAL_UART_MspInit
    HAL_UART_MspInit
        0x08001c44:    b510        ..      PUSH     {r4,lr}
        0x08001c46:    b086        ..      SUB      sp,sp,#0x18
        0x08001c48:    4604        .F      MOV      r4,r0
        0x08001c4a:    2114        .!      MOVS     r1,#0x14
        0x08001c4c:    4668        hF      MOV      r0,sp
        0x08001c4e:    f7fefaf6    ....    BL       __aeabi_memclr ; 0x800023e
        0x08001c52:    4913        .I      LDR      r1,[pc,#76] ; [0x8001ca0] = 0x40004400
        0x08001c54:    6820         h      LDR      r0,[r4,#0]
        0x08001c56:    4288        .B      CMP      r0,r1
        0x08001c58:    d11f        ..      BNE      0x8001c9a ; HAL_UART_MspInit + 86
        0x08001c5a:    4812        .H      LDR      r0,[pc,#72] ; [0x8001ca4] = 0x40021000
        0x08001c5c:    6d81        .m      LDR      r1,[r0,#0x58]
        0x08001c5e:    f4413100    A..1    ORR      r1,r1,#0x20000
        0x08001c62:    6581        .e      STR      r1,[r0,#0x58]
        0x08001c64:    6d81        .m      LDR      r1,[r0,#0x58]
        0x08001c66:    f4013100    ...1    AND      r1,r1,#0x20000
        0x08001c6a:    9105        ..      STR      r1,[sp,#0x14]
        0x08001c6c:    6cc1        .l      LDR      r1,[r0,#0x4c]
        0x08001c6e:    f0410101    A...    ORR      r1,r1,#1
        0x08001c72:    64c1        .d      STR      r1,[r0,#0x4c]
        0x08001c74:    6cc0        .l      LDR      r0,[r0,#0x4c]
        0x08001c76:    4669        iF      MOV      r1,sp
        0x08001c78:    f0000001    ....    AND      r0,r0,#1
        0x08001c7c:    9005        ..      STR      r0,[sp,#0x14]
        0x08001c7e:    200c        .       MOVS     r0,#0xc
        0x08001c80:    9000        ..      STR      r0,[sp,#0]
        0x08001c82:    2002        .       MOVS     r0,#2
        0x08001c84:    9001        ..      STR      r0,[sp,#4]
        0x08001c86:    2000        .       MOVS     r0,#0
        0x08001c88:    9002        ..      STR      r0,[sp,#8]
        0x08001c8a:    2003        .       MOVS     r0,#3
        0x08001c8c:    9003        ..      STR      r0,[sp,#0xc]
        0x08001c8e:    2007        .       MOVS     r0,#7
        0x08001c90:    9004        ..      STR      r0,[sp,#0x10]
        0x08001c92:    f04f4090    O..@    MOV      r0,#0x48000000
        0x08001c96:    f7fefcd7    ....    BL       HAL_GPIO_Init ; 0x8000648
        0x08001c9a:    b006        ..      ADD      sp,sp,#0x18
        0x08001c9c:    bd10        ..      POP      {r4,pc}
    $d
        0x08001c9e:    0000        ..      DCW    0
        0x08001ca0:    40004400    .D.@    DCD    1073759232
        0x08001ca4:    40021000    ...@    DCD    1073876992
    $t
    i.I2C2_ER_IRQHandler
    I2C2_ER_IRQHandler
        0x08001ca8:    4801        .H      LDR      r0,[pc,#4] ; [0x8001cb0] = 0x200000fc
        0x08001caa:    f7febe0f    ....    B        HAL_I2C_ER_IRQHandler ; 0x80008cc
    $d
        0x08001cae:    0000        ..      DCW    0
        0x08001cb0:    200000fc    ...     DCD    536871164
    $t
    i.I2C2_EV_IRQHandler
    I2C2_EV_IRQHandler
        0x08001cb4:    4801        .H      LDR      r0,[pc,#4] ; [0x8001cbc] = 0x200000fc
        0x08001cb6:    f7febe3d    ..=.    B        HAL_I2C_EV_IRQHandler ; 0x8000934
    $d
        0x08001cba:    0000        ..      DCW    0
        0x08001cbc:    200000fc    ...     DCD    536871164
    $t
    i.I2C_DMAAbort
    I2C_DMAAbort
        0x08001cc0:    b510        ..      PUSH     {r4,lr}
        0x08001cc2:    6a80        .j      LDR      r0,[r0,#0x28]
        0x08001cc4:    2100        .!      MOVS     r1,#0
        0x08001cc6:    6b82        .k      LDR      r2,[r0,#0x38]
        0x08001cc8:    6391        .c      STR      r1,[r2,#0x38]
        0x08001cca:    6bc2        .k      LDR      r2,[r0,#0x3c]
        0x08001ccc:    6391        .c      STR      r1,[r2,#0x38]
        0x08001cce:    f8901041    ..A.    LDRB     r1,[r0,#0x41]
        0x08001cd2:    2960        `)      CMP      r1,#0x60
        0x08001cd4:    d002        ..      BEQ      0x8001cdc ; I2C_DMAAbort + 28
        0x08001cd6:    f7fefe35    ..5.    BL       HAL_I2C_ErrorCallback ; 0x8000944
        0x08001cda:    bd10        ..      POP      {r4,pc}
        0x08001cdc:    2120         !      MOVS     r1,#0x20
        0x08001cde:    f8801041    ..A.    STRB     r1,[r0,#0x41]
        0x08001ce2:    f7fefdf1    ....    BL       HAL_I2C_AbortCpltCallback ; 0x80008c8
        0x08001ce6:    bd10        ..      POP      {r4,pc}
    i.I2C_Disable_IRQ
    I2C_Disable_IRQ
        0x08001ce8:    b510        ..      PUSH     {r4,lr}
        0x08001cea:    2200        ."      MOVS     r2,#0
        0x08001cec:    07cc        ..      LSLS     r4,r1,#31
        0x08001cee:    f04f0328    O.(.    MOV      r3,#0x28
        0x08001cf2:    d006        ..      BEQ      0x8001d02 ; I2C_Disable_IRQ + 26
        0x08001cf4:    f8904041    ..A@    LDRB     r4,[r0,#0x41]
        0x08001cf8:    2242        B"      MOVS     r2,#0x42
        0x08001cfa:    ea330404    3...    BICS     r4,r3,r4
        0x08001cfe:    d000        ..      BEQ      0x8001d02 ; I2C_Disable_IRQ + 26
        0x08001d00:    22f2        ."      MOVS     r2,#0xf2
        0x08001d02:    078c        ..      LSLS     r4,r1,#30
        0x08001d04:    d507        ..      BPL      0x8001d16 ; I2C_Disable_IRQ + 46
        0x08001d06:    f8904041    ..A@    LDRB     r4,[r0,#0x41]
        0x08001d0a:    f0420244    B.D.    ORR      r2,r2,#0x44
        0x08001d0e:    43a3        .C      BICS     r3,r3,r4
        0x08001d10:    d001        ..      BEQ      0x8001d16 ; I2C_Disable_IRQ + 46
        0x08001d12:    f04202b0    B...    ORR      r2,r2,#0xb0
        0x08001d16:    074b        K.      LSLS     r3,r1,#29
        0x08001d18:    d501        ..      BPL      0x8001d1e ; I2C_Disable_IRQ + 54
        0x08001d1a:    f04202b8    B...    ORR      r2,r2,#0xb8
        0x08001d1e:    2311        .#      MOVS     r3,#0x11
        0x08001d20:    438b        .C      BICS     r3,r3,r1
        0x08001d22:    d101        ..      BNE      0x8001d28 ; I2C_Disable_IRQ + 64
        0x08001d24:    f0420290    B...    ORR      r2,r2,#0x90
        0x08001d28:    2312        .#      MOVS     r3,#0x12
        0x08001d2a:    438b        .C      BICS     r3,r3,r1
        0x08001d2c:    d101        ..      BNE      0x8001d32 ; I2C_Disable_IRQ + 74
        0x08001d2e:    f0420260    B.`.    ORR      r2,r2,#0x60
        0x08001d32:    6800        .h      LDR      r0,[r0,#0]
        0x08001d34:    6801        .h      LDR      r1,[r0,#0]
        0x08001d36:    4391        .C      BICS     r1,r1,r2
        0x08001d38:    6001        .`      STR      r1,[r0,#0]
        0x08001d3a:    bd10        ..      POP      {r4,pc}
    i.I2C_Enable_IRQ
    I2C_Enable_IRQ
        0x08001d3c:    b530        0.      PUSH     {r4,r5,lr}
        0x08001d3e:    4d14        .M      LDR      r5,[pc,#80] ; [0x8001d90] = 0x800224d
        0x08001d40:    2312        .#      MOVS     r3,#0x12
        0x08001d42:    6b44        Dk      LDR      r4,[r0,#0x34]
        0x08001d44:    2200        ."      MOVS     r2,#0
        0x08001d46:    438b        .C      BICS     r3,r3,r1
        0x08001d48:    42ac        .B      CMP      r4,r5
        0x08001d4a:    d002        ..      BEQ      0x8001d52 ; I2C_Enable_IRQ + 22
        0x08001d4c:    4d11        .M      LDR      r5,[pc,#68] ; [0x8001d94] = 0x800254d
        0x08001d4e:    42ac        .B      CMP      r4,r5
        0x08001d50:    d10b        ..      BNE      0x8001d6a ; I2C_Enable_IRQ + 46
        0x08001d52:    074c        L.      LSLS     r4,r1,#29
        0x08001d54:    d500        ..      BPL      0x8001d58 ; I2C_Enable_IRQ + 28
        0x08001d56:    22b8        ."      MOVS     r2,#0xb8
        0x08001d58:    2411        .$      MOVS     r4,#0x11
        0x08001d5a:    438c        .C      BICS     r4,r4,r1
        0x08001d5c:    d101        ..      BNE      0x8001d62 ; I2C_Enable_IRQ + 38
        0x08001d5e:    f0420290    B...    ORR      r2,r2,#0x90
        0x08001d62:    b983        ..      CBNZ     r3,0x8001d86 ; I2C_Enable_IRQ + 74
        0x08001d64:    f0420260    B.`.    ORR      r2,r2,#0x60
        0x08001d68:    e00d        ..      B        0x8001d86 ; I2C_Enable_IRQ + 74
        0x08001d6a:    074c        L.      LSLS     r4,r1,#29
        0x08001d6c:    d500        ..      BPL      0x8001d70 ; I2C_Enable_IRQ + 52
        0x08001d6e:    22b8        ."      MOVS     r2,#0xb8
        0x08001d70:    07cc        ..      LSLS     r4,r1,#31
        0x08001d72:    d001        ..      BEQ      0x8001d78 ; I2C_Enable_IRQ + 60
        0x08001d74:    f04202f2    B...    ORR      r2,r2,#0xf2
        0x08001d78:    0789        ..      LSLS     r1,r1,#30
        0x08001d7a:    d501        ..      BPL      0x8001d80 ; I2C_Enable_IRQ + 68
        0x08001d7c:    f04202f4    B...    ORR      r2,r2,#0xf4
        0x08001d80:    b90b        ..      CBNZ     r3,0x8001d86 ; I2C_Enable_IRQ + 74
        0x08001d82:    f0420220    B. .    ORR      r2,r2,#0x20
        0x08001d86:    6800        .h      LDR      r0,[r0,#0]
        0x08001d88:    6801        .h      LDR      r1,[r0,#0]
        0x08001d8a:    4311        .C      ORRS     r1,r1,r2
        0x08001d8c:    6001        .`      STR      r1,[r0,#0]
        0x08001d8e:    bd30        0.      POP      {r4,r5,pc}
    $d
        0x08001d90:    0800224d    M"..    DCD    134226509
        0x08001d94:    0800254d    M%..    DCD    134227277
    $t
    i.I2C_Flush_TXDR
    I2C_Flush_TXDR
        0x08001d98:    6801        .h      LDR      r1,[r0,#0]
        0x08001d9a:    698a        .i      LDR      r2,[r1,#0x18]
        0x08001d9c:    43d2        .C      MVNS     r2,r2
        0x08001d9e:    0792        ..      LSLS     r2,r2,#30
        0x08001da0:    d401        ..      BMI      0x8001da6 ; I2C_Flush_TXDR + 14
        0x08001da2:    2200        ."      MOVS     r2,#0
        0x08001da4:    628a        .b      STR      r2,[r1,#0x28]
        0x08001da6:    6800        .h      LDR      r0,[r0,#0]
        0x08001da8:    6981        .i      LDR      r1,[r0,#0x18]
        0x08001daa:    43c9        .C      MVNS     r1,r1
        0x08001dac:    07c9        ..      LSLS     r1,r1,#31
        0x08001dae:    d003        ..      BEQ      0x8001db8 ; I2C_Flush_TXDR + 32
        0x08001db0:    6981        .i      LDR      r1,[r0,#0x18]
        0x08001db2:    f0410101    A...    ORR      r1,r1,#1
        0x08001db6:    6181        .a      STR      r1,[r0,#0x18]
        0x08001db8:    4770        pG      BX       lr
    i.I2C_ITAddrCplt
    I2C_ITAddrCplt
        0x08001dba:    e92d41f0    -..A    PUSH     {r4-r8,lr}
        0x08001dbe:    4604        .F      MOV      r4,r0
        0x08001dc0:    f8900041    ..A.    LDRB     r0,[r0,#0x41]
        0x08001dc4:    2128        (!      MOVS     r1,#0x28
        0x08001dc6:    4381        .C      BICS     r1,r1,r0
        0x08001dc8:    6820         h      LDR      r0,[r4,#0]
        0x08001dca:    f04f0500    O...    MOV      r5,#0
        0x08001dce:    f04f0308    O...    MOV      r3,#8
        0x08001dd2:    d004        ..      BEQ      0x8001dde ; I2C_ITAddrCplt + 36
        0x08001dd4:    61c3        .a      STR      r3,[r0,#0x1c]
        0x08001dd6:    f8845040    ..@P    STRB     r5,[r4,#0x40]
        0x08001dda:    e8bd81f0    ....    POP      {r4-r8,pc}
        0x08001dde:    6981        .i      LDR      r1,[r0,#0x18]
        0x08001de0:    f3c14700    ...G    UBFX     r7,r1,#16,#1
        0x08001de4:    6981        .i      LDR      r1,[r0,#0x18]
        0x08001de6:    22fe        ."      MOVS     r2,#0xfe
        0x08001de8:    ea024611    ...F    AND      r6,r2,r1,LSR #16
        0x08001dec:    6881        .h      LDR      r1,[r0,#8]
        0x08001dee:    f3c10209    ....    UBFX     r2,r1,#0,#10
        0x08001df2:    68c1        .h      LDR      r1,[r0,#0xc]
        0x08001df4:    f8d4c00c    ....    LDR      r12,[r4,#0xc]
        0x08001df8:    f00101fe    ....    AND      r1,r1,#0xfe
        0x08001dfc:    f1bc0f02    ....    CMP      r12,#2
        0x08001e00:    d117        ..      BNE      0x8001e32 ; I2C_ITAddrCplt + 120
        0x08001e02:    f04f0c06    O...    MOV      r12,#6
        0x08001e06:    f0060606    ....    AND      r6,r6,#6
        0x08001e0a:    ea0c1cd2    ....    AND      r12,r12,r2,LSR #7
        0x08001e0e:    4566        fE      CMP      r6,r12
        0x08001e10:    d10e        ..      BNE      0x8001e30 ; I2C_ITAddrCplt + 118
        0x08001e12:    6ca1        .l      LDR      r1,[r4,#0x48]
        0x08001e14:    1c49        I.      ADDS     r1,r1,#1
        0x08001e16:    64a1        .d      STR      r1,[r4,#0x48]
        0x08001e18:    6ca1        .l      LDR      r1,[r4,#0x48]
        0x08001e1a:    2902        .)      CMP      r1,#2
        0x08001e1c:    d1dd        ..      BNE      0x8001dda ; I2C_ITAddrCplt + 32
        0x08001e1e:    64a5        .d      STR      r5,[r4,#0x48]
        0x08001e20:    61c3        .a      STR      r3,[r0,#0x1c]
        0x08001e22:    f8845040    ..@P    STRB     r5,[r4,#0x40]
        0x08001e26:    4639        9F      MOV      r1,r7
        0x08001e28:    4620         F      MOV      r0,r4
        0x08001e2a:    f7fefd4e    ..N.    BL       HAL_I2C_AddrCallback ; 0x80008ca
        0x08001e2e:    e7d4        ..      B        0x8001dda ; I2C_ITAddrCplt + 32
        0x08001e30:    460e        .F      MOV      r6,r1
        0x08001e32:    2104        .!      MOVS     r1,#4
        0x08001e34:    4620         F      MOV      r0,r4
        0x08001e36:    f7ffff57    ..W.    BL       I2C_Disable_IRQ ; 0x8001ce8
        0x08001e3a:    f8845040    ..@P    STRB     r5,[r4,#0x40]
        0x08001e3e:    4632        2F      MOV      r2,r6
        0x08001e40:    e7f1        ..      B        0x8001e26 ; I2C_ITAddrCplt + 108
        0x08001e42:    0000        ..      MOVS     r0,r0
    i.I2C_ITError
    I2C_ITError
        0x08001e44:    b570        p.      PUSH     {r4-r6,lr}
        0x08001e46:    4604        .F      MOV      r4,r0
        0x08001e48:    f8900041    ..A.    LDRB     r0,[r0,#0x41]
        0x08001e4c:    2500        .%      MOVS     r5,#0
        0x08001e4e:    f8845042    ..BP    STRB     r5,[r4,#0x42]
        0x08001e52:    4a31        1J      LDR      r2,[pc,#196] ; [0x8001f18] = 0xffff0000
        0x08001e54:    62e2        .b      STR      r2,[r4,#0x2c]
        0x08001e56:    8565        e.      STRH     r5,[r4,#0x2a]
        0x08001e58:    6c62        bl      LDR      r2,[r4,#0x44]
        0x08001e5a:    430a        .C      ORRS     r2,r2,r1
        0x08001e5c:    6462        bd      STR      r2,[r4,#0x44]
        0x08001e5e:    2620         &      MOVS     r6,#0x20
        0x08001e60:    2828        ((      CMP      r0,#0x28
        0x08001e62:    d025        %.      BEQ      0x8001eb0 ; I2C_ITError + 108
        0x08001e64:    2829        )(      CMP      r0,#0x29
        0x08001e66:    d023        #.      BEQ      0x8001eb0 ; I2C_ITError + 108
        0x08001e68:    282a        *(      CMP      r0,#0x2a
        0x08001e6a:    d021        !.      BEQ      0x8001eb0 ; I2C_ITError + 108
        0x08001e6c:    2107        .!      MOVS     r1,#7
        0x08001e6e:    4620         F      MOV      r0,r4
        0x08001e70:    f7ffff3a    ..:.    BL       I2C_Disable_IRQ ; 0x8001ce8
        0x08001e74:    f8940041    ..A.    LDRB     r0,[r4,#0x41]
        0x08001e78:    2860        `(      CMP      r0,#0x60
        0x08001e7a:    d001        ..      BEQ      0x8001e80 ; I2C_ITError + 60
        0x08001e7c:    f8846041    ..A`    STRB     r6,[r4,#0x41]
        0x08001e80:    6325        %c      STR      r5,[r4,#0x30]
        0x08001e82:    6365        ec      STR      r5,[r4,#0x34]
        0x08001e84:    6820         h      LDR      r0,[r4,#0]
        0x08001e86:    6801        .h      LDR      r1,[r0,#0]
        0x08001e88:    044a        J.      LSLS     r2,r1,#17
        0x08001e8a:    4924        $I      LDR      r1,[pc,#144] ; [0x8001f1c] = 0x8001cc1
        0x08001e8c:    6802        .h      LDR      r2,[r0,#0]
        0x08001e8e:    d51a        ..      BPL      0x8001ec6 ; I2C_ITError + 130
        0x08001e90:    f4224280    "..B    BIC      r2,r2,#0x4000
        0x08001e94:    6002        .`      STR      r2,[r0,#0]
        0x08001e96:    6ba0        .k      LDR      r0,[r4,#0x38]
        0x08001e98:    2800        .(      CMP      r0,#0
        0x08001e9a:    d033        3.      BEQ      0x8001f04 ; I2C_ITError + 192
        0x08001e9c:    6381        .c      STR      r1,[r0,#0x38]
        0x08001e9e:    f8845040    ..@P    STRB     r5,[r4,#0x40]
        0x08001ea2:    6ba0        .k      LDR      r0,[r4,#0x38]
        0x08001ea4:    f7fefb8a    ....    BL       HAL_DMA_Abort_IT ; 0x80005bc
        0x08001ea8:    2800        .(      CMP      r0,#0
        0x08001eaa:    d02b        +.      BEQ      0x8001f04 ; I2C_ITError + 192
        0x08001eac:    6ba0        .k      LDR      r0,[r4,#0x38]
        0x08001eae:    e01c        ..      B        0x8001eea ; I2C_ITError + 166
        0x08001eb0:    2103        .!      MOVS     r1,#3
        0x08001eb2:    4620         F      MOV      r0,r4
        0x08001eb4:    f7ffff18    ....    BL       I2C_Disable_IRQ ; 0x8001ce8
        0x08001eb8:    2028        (       MOVS     r0,#0x28
        0x08001eba:    f8840041    ..A.    STRB     r0,[r4,#0x41]
        0x08001ebe:    6325        %c      STR      r5,[r4,#0x30]
        0x08001ec0:    4817        .H      LDR      r0,[pc,#92] ; [0x8001f20] = 0x8002629
        0x08001ec2:    6360        `c      STR      r0,[r4,#0x34]
        0x08001ec4:    e7de        ..      B        0x8001e84 ; I2C_ITError + 64
        0x08001ec6:    0412        ..      LSLS     r2,r2,#16
        0x08001ec8:    d513        ..      BPL      0x8001ef2 ; I2C_ITError + 174
        0x08001eca:    6802        .h      LDR      r2,[r0,#0]
        0x08001ecc:    f4224200    "..B    BIC      r2,r2,#0x8000
        0x08001ed0:    6002        .`      STR      r2,[r0,#0]
        0x08001ed2:    6be0        .k      LDR      r0,[r4,#0x3c]
        0x08001ed4:    2800        .(      CMP      r0,#0
        0x08001ed6:    d015        ..      BEQ      0x8001f04 ; I2C_ITError + 192
        0x08001ed8:    6381        .c      STR      r1,[r0,#0x38]
        0x08001eda:    f8845040    ..@P    STRB     r5,[r4,#0x40]
        0x08001ede:    6be0        .k      LDR      r0,[r4,#0x3c]
        0x08001ee0:    f7fefb6c    ..l.    BL       HAL_DMA_Abort_IT ; 0x80005bc
        0x08001ee4:    2800        .(      CMP      r0,#0
        0x08001ee6:    d00d        ..      BEQ      0x8001f04 ; I2C_ITError + 192
        0x08001ee8:    6be0        .k      LDR      r0,[r4,#0x3c]
        0x08001eea:    6b81        .k      LDR      r1,[r0,#0x38]
        0x08001eec:    e8bd4070    ..p@    POP      {r4-r6,lr}
        0x08001ef0:    4708        .G      BX       r1
        0x08001ef2:    f8940041    ..A.    LDRB     r0,[r4,#0x41]
        0x08001ef6:    2860        `(      CMP      r0,#0x60
        0x08001ef8:    d005        ..      BEQ      0x8001f06 ; I2C_ITError + 194
        0x08001efa:    f8845040    ..@P    STRB     r5,[r4,#0x40]
        0x08001efe:    4620         F      MOV      r0,r4
        0x08001f00:    f7fefd20    .. .    BL       HAL_I2C_ErrorCallback ; 0x8000944
        0x08001f04:    bd70        p.      POP      {r4-r6,pc}
        0x08001f06:    f8846041    ..A`    STRB     r6,[r4,#0x41]
        0x08001f0a:    f8845040    ..@P    STRB     r5,[r4,#0x40]
        0x08001f0e:    4620         F      MOV      r0,r4
        0x08001f10:    f7fefcda    ....    BL       HAL_I2C_AbortCpltCallback ; 0x80008c8
        0x08001f14:    bd70        p.      POP      {r4-r6,pc}
    $d
        0x08001f16:    0000        ..      DCW    0
        0x08001f18:    ffff0000    ....    DCD    4294901760
        0x08001f1c:    08001cc1    ....    DCD    134225089
        0x08001f20:    08002629    )&..    DCD    134227497
    $t
    i.I2C_ITListenCplt
    I2C_ITListenCplt
        0x08001f24:    b570        p.      PUSH     {r4-r6,lr}
        0x08001f26:    4604        .F      MOV      r4,r0
        0x08001f28:    4815        .H      LDR      r0,[pc,#84] ; [0x8001f80] = 0xffff0000
        0x08001f2a:    62e0        .b      STR      r0,[r4,#0x2c]
        0x08001f2c:    2500        .%      MOVS     r5,#0
        0x08001f2e:    6325        %c      STR      r5,[r4,#0x30]
        0x08001f30:    2020                MOVS     r0,#0x20
        0x08001f32:    f8840041    ..A.    STRB     r0,[r4,#0x41]
        0x08001f36:    f8845042    ..BP    STRB     r5,[r4,#0x42]
        0x08001f3a:    43c8        .C      MVNS     r0,r1
        0x08001f3c:    6365        ec      STR      r5,[r4,#0x34]
        0x08001f3e:    0740        @.      LSLS     r0,r0,#29
        0x08001f40:    d411        ..      BMI      0x8001f66 ; I2C_ITListenCplt + 66
        0x08001f42:    6820         h      LDR      r0,[r4,#0]
        0x08001f44:    6a40        @j      LDR      r0,[r0,#0x24]
        0x08001f46:    6a61        aj      LDR      r1,[r4,#0x24]
        0x08001f48:    7008        .p      STRB     r0,[r1,#0]
        0x08001f4a:    6a60        `j      LDR      r0,[r4,#0x24]
        0x08001f4c:    1c40        @.      ADDS     r0,r0,#1
        0x08001f4e:    6260        `b      STR      r0,[r4,#0x24]
        0x08001f50:    8d20         .      LDRH     r0,[r4,#0x28]
        0x08001f52:    b140        @.      CBZ      r0,0x8001f66 ; I2C_ITListenCplt + 66
        0x08001f54:    1e40        @.      SUBS     r0,r0,#1
        0x08001f56:    8520         .      STRH     r0,[r4,#0x28]
        0x08001f58:    8d60        `.      LDRH     r0,[r4,#0x2a]
        0x08001f5a:    1e40        @.      SUBS     r0,r0,#1
        0x08001f5c:    8560        `.      STRH     r0,[r4,#0x2a]
        0x08001f5e:    6c60        `l      LDR      r0,[r4,#0x44]
        0x08001f60:    f0400004    @...    ORR      r0,r0,#4
        0x08001f64:    6460        `d      STR      r0,[r4,#0x44]
        0x08001f66:    2107        .!      MOVS     r1,#7
        0x08001f68:    4620         F      MOV      r0,r4
        0x08001f6a:    f7fffebd    ....    BL       I2C_Disable_IRQ ; 0x8001ce8
        0x08001f6e:    6821        !h      LDR      r1,[r4,#0]
        0x08001f70:    2010        .       MOVS     r0,#0x10
        0x08001f72:    61c8        .a      STR      r0,[r1,#0x1c]
        0x08001f74:    f8845040    ..@P    STRB     r5,[r4,#0x40]
        0x08001f78:    4620         F      MOV      r0,r4
        0x08001f7a:    f7fefd41    ..A.    BL       HAL_I2C_ListenCpltCallback ; 0x8000a00
        0x08001f7e:    bd70        p.      POP      {r4-r6,pc}
    $d
        0x08001f80:    ffff0000    ....    DCD    4294901760
    $t
    i.I2C_ITMasterCplt
    I2C_ITMasterCplt
        0x08001f84:    b570        p.      PUSH     {r4-r6,lr}
        0x08001f86:    4604        .F      MOV      r4,r0
        0x08001f88:    6800        .h      LDR      r0,[r0,#0]
        0x08001f8a:    2620         &      MOVS     r6,#0x20
        0x08001f8c:    61c6        .a      STR      r6,[r0,#0x1c]
        0x08001f8e:    6820         h      LDR      r0,[r4,#0]
        0x08001f90:    6842        Bh      LDR      r2,[r0,#4]
        0x08001f92:    4b27        'K      LDR      r3,[pc,#156] ; [0x8002030] = 0xfe00e800
        0x08001f94:    401a        .@      ANDS     r2,r2,r3
        0x08001f96:    6042        B`      STR      r2,[r0,#4]
        0x08001f98:    2500        .%      MOVS     r5,#0
        0x08001f9a:    6325        %c      STR      r5,[r4,#0x30]
        0x08001f9c:    4825        %H      LDR      r0,[pc,#148] ; [0x8002034] = 0xffff0000
        0x08001f9e:    6365        ec      STR      r5,[r4,#0x34]
        0x08001fa0:    62e0        .b      STR      r0,[r4,#0x2c]
        0x08001fa2:    43c8        .C      MVNS     r0,r1
        0x08001fa4:    06c0        ..      LSLS     r0,r0,#27
        0x08001fa6:    d406        ..      BMI      0x8001fb6 ; I2C_ITMasterCplt + 50
        0x08001fa8:    6821        !h      LDR      r1,[r4,#0]
        0x08001faa:    2010        .       MOVS     r0,#0x10
        0x08001fac:    61c8        .a      STR      r0,[r1,#0x1c]
        0x08001fae:    6c60        `l      LDR      r0,[r4,#0x44]
        0x08001fb0:    f0400004    @...    ORR      r0,r0,#4
        0x08001fb4:    6460        `d      STR      r0,[r4,#0x44]
        0x08001fb6:    4620         F      MOV      r0,r4
        0x08001fb8:    f7fffeee    ....    BL       I2C_Flush_TXDR ; 0x8001d98
        0x08001fbc:    2103        .!      MOVS     r1,#3
        0x08001fbe:    4620         F      MOV      r0,r4
        0x08001fc0:    f7fffe92    ....    BL       I2C_Disable_IRQ ; 0x8001ce8
        0x08001fc4:    6c60        `l      LDR      r0,[r4,#0x44]
        0x08001fc6:    f8941041    ..A.    LDRB     r1,[r4,#0x41]
        0x08001fca:    2960        `)      CMP      r1,#0x60
        0x08001fcc:    d000        ..      BEQ      0x8001fd0 ; I2C_ITMasterCplt + 76
        0x08001fce:    b128        (.      CBZ      r0,0x8001fdc ; I2C_ITMasterCplt + 88
        0x08001fd0:    6c61        al      LDR      r1,[r4,#0x44]
        0x08001fd2:    4620         F      MOV      r0,r4
        0x08001fd4:    e8bd4070    ..p@    POP      {r4-r6,lr}
        0x08001fd8:    f7ffbf34    ..4.    B.W      I2C_ITError ; 0x8001e44
        0x08001fdc:    f8940041    ..A.    LDRB     r0,[r4,#0x41]
        0x08001fe0:    2821        !(      CMP      r0,#0x21
        0x08001fe2:    d011        ..      BEQ      0x8002008 ; I2C_ITMasterCplt + 132
        0x08001fe4:    f8940041    ..A.    LDRB     r0,[r4,#0x41]
        0x08001fe8:    2822        "(      CMP      r0,#0x22
        0x08001fea:    d10c        ..      BNE      0x8002006 ; I2C_ITMasterCplt + 130
        0x08001fec:    f8846041    ..A`    STRB     r6,[r4,#0x41]
        0x08001ff0:    f8940042    ..B.    LDRB     r0,[r4,#0x42]
        0x08001ff4:    f8845042    ..BP    STRB     r5,[r4,#0x42]
        0x08001ff8:    2840        @(      CMP      r0,#0x40
        0x08001ffa:    f8845040    ..@P    STRB     r5,[r4,#0x40]
        0x08001ffe:    4620         F      MOV      r0,r4
        0x08002000:    d013        ..      BEQ      0x800202a ; I2C_ITMasterCplt + 166
        0x08002002:    f7fefcfe    ....    BL       HAL_I2C_MasterRxCpltCallback ; 0x8000a02
        0x08002006:    bd70        p.      POP      {r4-r6,pc}
        0x08002008:    f8846041    ..A`    STRB     r6,[r4,#0x41]
        0x0800200c:    f8940042    ..B.    LDRB     r0,[r4,#0x42]
        0x08002010:    f8845042    ..BP    STRB     r5,[r4,#0x42]
        0x08002014:    2840        @(      CMP      r0,#0x40
        0x08002016:    f8845040    ..@P    STRB     r5,[r4,#0x40]
        0x0800201a:    4620         F      MOV      r0,r4
        0x0800201c:    d002        ..      BEQ      0x8002024 ; I2C_ITMasterCplt + 160
        0x0800201e:    f7fefcf1    ....    BL       HAL_I2C_MasterTxCpltCallback ; 0x8000a04
        0x08002022:    bd70        p.      POP      {r4-r6,pc}
        0x08002024:    f7fefd20    .. .    BL       HAL_I2C_MemTxCpltCallback ; 0x8000a68
        0x08002028:    bd70        p.      POP      {r4-r6,pc}
        0x0800202a:    f7fefced    ....    BL       HAL_I2C_MemRxCpltCallback ; 0x8000a08
        0x0800202e:    bd70        p.      POP      {r4-r6,pc}
    $d
        0x08002030:    fe00e800    ....    DCD    4261472256
        0x08002034:    ffff0000    ....    DCD    4294901760
    $t
    i.I2C_ITMasterSeqCplt
    I2C_ITMasterSeqCplt
        0x08002038:    b570        p.      PUSH     {r4-r6,lr}
        0x0800203a:    2500        .%      MOVS     r5,#0
        0x0800203c:    4604        .F      MOV      r4,r0
        0x0800203e:    f8805042    ..BP    STRB     r5,[r0,#0x42]
        0x08002042:    f8901041    ..A.    LDRB     r1,[r0,#0x41]
        0x08002046:    2020                MOVS     r0,#0x20
        0x08002048:    2921        !)      CMP      r1,#0x21
        0x0800204a:    f8840041    ..A.    STRB     r0,[r4,#0x41]
        0x0800204e:    d00c        ..      BEQ      0x800206a ; I2C_ITMasterSeqCplt + 50
        0x08002050:    2012        .       MOVS     r0,#0x12
        0x08002052:    6320         c      STR      r0,[r4,#0x30]
        0x08002054:    2102        .!      MOVS     r1,#2
        0x08002056:    4620         F      MOV      r0,r4
        0x08002058:    6365        ec      STR      r5,[r4,#0x34]
        0x0800205a:    f7fffe45    ..E.    BL       I2C_Disable_IRQ ; 0x8001ce8
        0x0800205e:    f8845040    ..@P    STRB     r5,[r4,#0x40]
        0x08002062:    4620         F      MOV      r0,r4
        0x08002064:    f7fefccd    ....    BL       HAL_I2C_MasterRxCpltCallback ; 0x8000a02
        0x08002068:    bd70        p.      POP      {r4-r6,pc}
        0x0800206a:    2011        .       MOVS     r0,#0x11
        0x0800206c:    6320         c      STR      r0,[r4,#0x30]
        0x0800206e:    2101        .!      MOVS     r1,#1
        0x08002070:    4620         F      MOV      r0,r4
        0x08002072:    6365        ec      STR      r5,[r4,#0x34]
        0x08002074:    f7fffe38    ..8.    BL       I2C_Disable_IRQ ; 0x8001ce8
        0x08002078:    f8845040    ..@P    STRB     r5,[r4,#0x40]
        0x0800207c:    4620         F      MOV      r0,r4
        0x0800207e:    f7fefcc1    ....    BL       HAL_I2C_MasterTxCpltCallback ; 0x8000a04
        0x08002082:    bd70        p.      POP      {r4-r6,pc}
    i.I2C_ITSlaveCplt
    I2C_ITSlaveCplt
        0x08002084:    e92d41f0    -..A    PUSH     {r4-r8,lr}
        0x08002088:    4604        .F      MOV      r4,r0
        0x0800208a:    6800        .h      LDR      r0,[r0,#0]
        0x0800208c:    6805        .h      LDR      r5,[r0,#0]
        0x0800208e:    2720         '      MOVS     r7,#0x20
        0x08002090:    460e        .F      MOV      r6,r1
        0x08002092:    61c7        .a      STR      r7,[r0,#0x1c]
        0x08002094:    2107        .!      MOVS     r1,#7
        0x08002096:    4620         F      MOV      r0,r4
        0x08002098:    f7fffe26    ..&.    BL       I2C_Disable_IRQ ; 0x8001ce8
        0x0800209c:    6820         h      LDR      r0,[r4,#0]
        0x0800209e:    6841        Ah      LDR      r1,[r0,#4]
        0x080020a0:    f4414100    A..A    ORR      r1,r1,#0x8000
        0x080020a4:    6041        A`      STR      r1,[r0,#4]
        0x080020a6:    6820         h      LDR      r0,[r4,#0]
        0x080020a8:    6841        Ah      LDR      r1,[r0,#4]
        0x080020aa:    4a30        0J      LDR      r2,[pc,#192] ; [0x800216c] = 0xfe00e800
        0x080020ac:    4011        .@      ANDS     r1,r1,r2
        0x080020ae:    6041        A`      STR      r1,[r0,#4]
        0x080020b0:    4620         F      MOV      r0,r4
        0x080020b2:    f7fffe71    ..q.    BL       I2C_Flush_TXDR ; 0x8001d98
        0x080020b6:    43e8        .C      MVNS     r0,r5
        0x080020b8:    0441        A.      LSLS     r1,r0,#17
        0x080020ba:    d401        ..      BMI      0x80020c0 ; I2C_ITSlaveCplt + 60
        0x080020bc:    6ba0        .k      LDR      r0,[r4,#0x38]
        0x080020be:    e002        ..      B        0x80020c6 ; I2C_ITSlaveCplt + 66
        0x080020c0:    0400        ..      LSLS     r0,r0,#16
        0x080020c2:    d404        ..      BMI      0x80020ce ; I2C_ITSlaveCplt + 74
        0x080020c4:    6be0        .k      LDR      r0,[r4,#0x3c]
        0x080020c6:    b110        ..      CBZ      r0,0x80020ce ; I2C_ITSlaveCplt + 74
        0x080020c8:    6800        .h      LDR      r0,[r0,#0]
        0x080020ca:    6840        @h      LDR      r0,[r0,#4]
        0x080020cc:    8560        `.      STRH     r0,[r4,#0x2a]
        0x080020ce:    43f0        .C      MVNS     r0,r6
        0x080020d0:    0740        @.      LSLS     r0,r0,#29
        0x080020d2:    d40f        ..      BMI      0x80020f4 ; I2C_ITSlaveCplt + 112
        0x080020d4:    6820         h      LDR      r0,[r4,#0]
        0x080020d6:    f0260604    &...    BIC      r6,r6,#4
        0x080020da:    6a40        @j      LDR      r0,[r0,#0x24]
        0x080020dc:    6a61        aj      LDR      r1,[r4,#0x24]
        0x080020de:    7008        .p      STRB     r0,[r1,#0]
        0x080020e0:    6a60        `j      LDR      r0,[r4,#0x24]
        0x080020e2:    1c40        @.      ADDS     r0,r0,#1
        0x080020e4:    6260        `b      STR      r0,[r4,#0x24]
        0x080020e6:    8d20         .      LDRH     r0,[r4,#0x28]
        0x080020e8:    b120         .      CBZ      r0,0x80020f4 ; I2C_ITSlaveCplt + 112
        0x080020ea:    1e40        @.      SUBS     r0,r0,#1
        0x080020ec:    8520         .      STRH     r0,[r4,#0x28]
        0x080020ee:    8d60        `.      LDRH     r0,[r4,#0x2a]
        0x080020f0:    1e40        @.      SUBS     r0,r0,#1
        0x080020f2:    8560        `.      STRH     r0,[r4,#0x2a]
        0x080020f4:    8d60        `.      LDRH     r0,[r4,#0x2a]
        0x080020f6:    b118        ..      CBZ      r0,0x8002100 ; I2C_ITSlaveCplt + 124
        0x080020f8:    6c60        `l      LDR      r0,[r4,#0x44]
        0x080020fa:    f0400004    @...    ORR      r0,r0,#4
        0x080020fe:    6460        `d      STR      r0,[r4,#0x44]
        0x08002100:    2500        .%      MOVS     r5,#0
        0x08002102:    6325        %c      STR      r5,[r4,#0x30]
        0x08002104:    f8845042    ..BP    STRB     r5,[r4,#0x42]
        0x08002108:    6365        ec      STR      r5,[r4,#0x34]
        0x0800210a:    6c60        `l      LDR      r0,[r4,#0x44]
        0x0800210c:    b168        h.      CBZ      r0,0x800212a ; I2C_ITSlaveCplt + 166
        0x0800210e:    6c61        al      LDR      r1,[r4,#0x44]
        0x08002110:    4620         F      MOV      r0,r4
        0x08002112:    f7fffe97    ....    BL       I2C_ITError ; 0x8001e44
        0x08002116:    f8940041    ..A.    LDRB     r0,[r4,#0x41]
        0x0800211a:    2828        ((      CMP      r0,#0x28
        0x0800211c:    d114        ..      BNE      0x8002148 ; I2C_ITSlaveCplt + 196
        0x0800211e:    4631        1F      MOV      r1,r6
        0x08002120:    4620         F      MOV      r0,r4
        0x08002122:    e8bd41f0    ...A    POP      {r4-r8,lr}
        0x08002126:    f7ffbefd    ....    B.W      I2C_ITListenCplt ; 0x8001f24
        0x0800212a:    6ae0        .j      LDR      r0,[r4,#0x2c]
        0x0800212c:    4e10        .N      LDR      r6,[pc,#64] ; [0x8002170] = 0xffff0000
        0x0800212e:    42b0        .B      CMP      r0,r6
        0x08002130:    d00c        ..      BEQ      0x800214c ; I2C_ITSlaveCplt + 200
        0x08002132:    4620         F      MOV      r0,r4
        0x08002134:    f000f81e    ....    BL       I2C_ITSlaveSeqCplt ; 0x8002174
        0x08002138:    62e6        .b      STR      r6,[r4,#0x2c]
        0x0800213a:    f8847041    ..Ap    STRB     r7,[r4,#0x41]
        0x0800213e:    f8845040    ..@P    STRB     r5,[r4,#0x40]
        0x08002142:    4620         F      MOV      r0,r4
        0x08002144:    f7fefc5c    ..\.    BL       HAL_I2C_ListenCpltCallback ; 0x8000a00
        0x08002148:    e8bd81f0    ....    POP      {r4-r8,pc}
        0x0800214c:    f8940041    ..A.    LDRB     r0,[r4,#0x41]
        0x08002150:    f8847041    ..Ap    STRB     r7,[r4,#0x41]
        0x08002154:    2822        "(      CMP      r0,#0x22
        0x08002156:    f8845040    ..@P    STRB     r5,[r4,#0x40]
        0x0800215a:    4620         F      MOV      r0,r4
        0x0800215c:    d002        ..      BEQ      0x8002164 ; I2C_ITSlaveCplt + 224
        0x0800215e:    f7fefde4    ....    BL       HAL_I2C_SlaveTxCpltCallback ; 0x8000d2a
        0x08002162:    e7f1        ..      B        0x8002148 ; I2C_ITSlaveCplt + 196
        0x08002164:    f7fefde0    ....    BL       HAL_I2C_SlaveRxCpltCallback ; 0x8000d28
        0x08002168:    e7ee        ..      B        0x8002148 ; I2C_ITSlaveCplt + 196
    $d
        0x0800216a:    0000        ..      DCW    0
        0x0800216c:    fe00e800    ....    DCD    4261472256
        0x08002170:    ffff0000    ....    DCD    4294901760
    $t
    i.I2C_ITSlaveSeqCplt
    I2C_ITSlaveSeqCplt
        0x08002174:    b570        p.      PUSH     {r4-r6,lr}
        0x08002176:    2500        .%      MOVS     r5,#0
        0x08002178:    4604        .F      MOV      r4,r0
        0x0800217a:    f8805042    ..BP    STRB     r5,[r0,#0x42]
        0x0800217e:    f8901041    ..A.    LDRB     r1,[r0,#0x41]
        0x08002182:    2028        (       MOVS     r0,#0x28
        0x08002184:    2929        ))      CMP      r1,#0x29
        0x08002186:    d011        ..      BEQ      0x80021ac ; I2C_ITSlaveSeqCplt + 56
        0x08002188:    f8941041    ..A.    LDRB     r1,[r4,#0x41]
        0x0800218c:    292a        *)      CMP      r1,#0x2a
        0x0800218e:    d10c        ..      BNE      0x80021aa ; I2C_ITSlaveSeqCplt + 54
        0x08002190:    f8840041    ..A.    STRB     r0,[r4,#0x41]
        0x08002194:    2022        "       MOVS     r0,#0x22
        0x08002196:    6320         c      STR      r0,[r4,#0x30]
        0x08002198:    2102        .!      MOVS     r1,#2
        0x0800219a:    4620         F      MOV      r0,r4
        0x0800219c:    f7fffda4    ....    BL       I2C_Disable_IRQ ; 0x8001ce8
        0x080021a0:    f8845040    ..@P    STRB     r5,[r4,#0x40]
        0x080021a4:    4620         F      MOV      r0,r4
        0x080021a6:    f7fefdbf    ....    BL       HAL_I2C_SlaveRxCpltCallback ; 0x8000d28
        0x080021aa:    bd70        p.      POP      {r4-r6,pc}
        0x080021ac:    f8840041    ..A.    STRB     r0,[r4,#0x41]
        0x080021b0:    2021        !       MOVS     r0,#0x21
        0x080021b2:    6320         c      STR      r0,[r4,#0x30]
        0x080021b4:    2101        .!      MOVS     r1,#1
        0x080021b6:    4620         F      MOV      r0,r4
        0x080021b8:    f7fffd96    ....    BL       I2C_Disable_IRQ ; 0x8001ce8
        0x080021bc:    f8845040    ..@P    STRB     r5,[r4,#0x40]
        0x080021c0:    4620         F      MOV      r0,r4
        0x080021c2:    f7fefdb2    ....    BL       HAL_I2C_SlaveTxCpltCallback ; 0x8000d2a
        0x080021c6:    bd70        p.      POP      {r4-r6,pc}
    i.I2C_IsAcknowledgeFailed
    I2C_IsAcknowledgeFailed
        0x080021c8:    e92d41f0    -..A    PUSH     {r4-r8,lr}
        0x080021cc:    4604        .F      MOV      r4,r0
        0x080021ce:    6800        .h      LDR      r0,[r0,#0]
        0x080021d0:    4690        .F      MOV      r8,r2
        0x080021d2:    460e        .F      MOV      r6,r1
        0x080021d4:    6980        .i      LDR      r0,[r0,#0x18]
        0x080021d6:    43c0        .C      MVNS     r0,r0
        0x080021d8:    06c0        ..      LSLS     r0,r0,#27
        0x080021da:    d433        3.      BMI      0x8002244 ; I2C_IsAcknowledgeFailed + 124
        0x080021dc:    2500        .%      MOVS     r5,#0
        0x080021de:    2720         '      MOVS     r7,#0x20
        0x080021e0:    6820         h      LDR      r0,[r4,#0]
        0x080021e2:    6980        .i      LDR      r0,[r0,#0x18]
        0x080021e4:    43c0        .C      MVNS     r0,r0
        0x080021e6:    0680        ..      LSLS     r0,r0,#26
        0x080021e8:    d515        ..      BPL      0x8002216 ; I2C_IsAcknowledgeFailed + 78
        0x080021ea:    1c70        p.      ADDS     r0,r6,#1
        0x080021ec:    d0f8        ..      BEQ      0x80021e0 ; I2C_IsAcknowledgeFailed + 24
        0x080021ee:    f7fefb11    ....    BL       HAL_GetTick ; 0x8000814
        0x080021f2:    eba00008    ....    SUB      r0,r0,r8
        0x080021f6:    42b0        .B      CMP      r0,r6
        0x080021f8:    d801        ..      BHI      0x80021fe ; I2C_IsAcknowledgeFailed + 54
        0x080021fa:    2e00        ..      CMP      r6,#0
        0x080021fc:    d1f0        ..      BNE      0x80021e0 ; I2C_IsAcknowledgeFailed + 24
        0x080021fe:    f8540f44    T.D.    LDR      r0,[r4,#0x44]!
        0x08002202:    f0400020    @. .    ORR      r0,r0,#0x20
        0x08002206:    f8440904    D...    STR      r0,[r4],#-4
        0x0800220a:    7067        gp      STRB     r7,[r4,#1]
        0x0800220c:    70a5        .p      STRB     r5,[r4,#2]
        0x0800220e:    7025        %p      STRB     r5,[r4,#0]
        0x08002210:    2001        .       MOVS     r0,#1
        0x08002212:    e8bd81f0    ....    POP      {r4-r8,pc}
        0x08002216:    6821        !h      LDR      r1,[r4,#0]
        0x08002218:    2010        .       MOVS     r0,#0x10
        0x0800221a:    61c8        .a      STR      r0,[r1,#0x1c]
        0x0800221c:    6820         h      LDR      r0,[r4,#0]
        0x0800221e:    61c7        .a      STR      r7,[r0,#0x1c]
        0x08002220:    4620         F      MOV      r0,r4
        0x08002222:    f7fffdb9    ....    BL       I2C_Flush_TXDR ; 0x8001d98
        0x08002226:    f8540b44    T.D.    LDR      r0,[r4],#0x44
        0x0800222a:    6841        Ah      LDR      r1,[r0,#4]
        0x0800222c:    4a06        .J      LDR      r2,[pc,#24] ; [0x8002248] = 0xfe00e800
        0x0800222e:    4011        .@      ANDS     r1,r1,r2
        0x08002230:    6041        A`      STR      r1,[r0,#4]
        0x08002232:    6820         h      LDR      r0,[r4,#0]
        0x08002234:    f0400004    @...    ORR      r0,r0,#4
        0x08002238:    f8440920    D. .    STR      r0,[r4],#-0x20
        0x0800223c:    7767        gw      STRB     r7,[r4,#0x1d]
        0x0800223e:    77a5        .w      STRB     r5,[r4,#0x1e]
        0x08002240:    7725        %w      STRB     r5,[r4,#0x1c]
        0x08002242:    e7e5        ..      B        0x8002210 ; I2C_IsAcknowledgeFailed + 72
        0x08002244:    2000        .       MOVS     r0,#0
        0x08002246:    e7e4        ..      B        0x8002212 ; I2C_IsAcknowledgeFailed + 74
    $d
        0x08002248:    fe00e800    ....    DCD    4261472256
    $t
    i.I2C_Master_ISR_DMA
    I2C_Master_ISR_DMA
        0x0800224c:    b5f8        ..      PUSH     {r3-r7,lr}
        0x0800224e:    4604        .F      MOV      r4,r0
        0x08002250:    f8900040    ..@.    LDRB     r0,[r0,#0x40]
        0x08002254:    2801        .(      CMP      r0,#1
        0x08002256:    d01a        ..      BEQ      0x800228e ; I2C_Master_ISR_DMA + 66
        0x08002258:    2001        .       MOVS     r0,#1
        0x0800225a:    f8840040    ..@.    STRB     r0,[r4,#0x40]
        0x0800225e:    43cb        .C      MVNS     r3,r1
        0x08002260:    06de        ..      LSLS     r6,r3,#27
        0x08002262:    f04f0500    O...    MOV      r5,#0
        0x08002266:    ea6f0002    o...    MVN      r0,r2
        0x0800226a:    d412        ..      BMI      0x8002292 ; I2C_Master_ISR_DMA + 70
        0x0800226c:    06c2        ..      LSLS     r2,r0,#27
        0x0800226e:    d410        ..      BMI      0x8002292 ; I2C_Master_ISR_DMA + 70
        0x08002270:    6821        !h      LDR      r1,[r4,#0]
        0x08002272:    2010        .       MOVS     r0,#0x10
        0x08002274:    61c8        .a      STR      r0,[r1,#0x1c]
        0x08002276:    6c60        `l      LDR      r0,[r4,#0x44]
        0x08002278:    f0400004    @...    ORR      r0,r0,#4
        0x0800227c:    6460        `d      STR      r0,[r4,#0x44]
        0x0800227e:    2112        .!      MOVS     r1,#0x12
        0x08002280:    4620         F      MOV      r0,r4
        0x08002282:    f7fffd5b    ..[.    BL       I2C_Enable_IRQ ; 0x8001d3c
        0x08002286:    4620         F      MOV      r0,r4
        0x08002288:    f7fffd86    ....    BL       I2C_Flush_TXDR ; 0x8001d98
        0x0800228c:    e05f        _.      B        0x800234e ; I2C_Master_ISR_DMA + 258
        0x0800228e:    2002        .       MOVS     r0,#2
        0x08002290:    bdf8        ..      POP      {r3-r7,pc}
        0x08002292:    4a31        1J      LDR      r2,[pc,#196] ; [0x8002358] = 0xffff0000
        0x08002294:    061e        ..      LSLS     r6,r3,#24
        0x08002296:    d438        8.      BMI      0x800230a ; I2C_Master_ISR_DMA + 190
        0x08002298:    0646        F.      LSLS     r6,r0,#25
        0x0800229a:    d436        6.      BMI      0x800230a ; I2C_Master_ISR_DMA + 190
        0x0800229c:    6820         h      LDR      r0,[r4,#0]
        0x0800229e:    6801        .h      LDR      r1,[r0,#0]
        0x080022a0:    f0210140    !.@.    BIC      r1,r1,#0x40
        0x080022a4:    6001        .`      STR      r1,[r0,#0]
        0x080022a6:    8d60        `.      LDRH     r0,[r4,#0x2a]
        0x080022a8:    2800        .(      CMP      r0,#0
        0x080022aa:    6820         h      LDR      r0,[r4,#0]
        0x080022ac:    6840        @h      LDR      r0,[r0,#4]
        0x080022ae:    d029        ).      BEQ      0x8002304 ; I2C_Master_ISR_DMA + 184
        0x080022b0:    f3c00109    ....    UBFX     r1,r0,#0,#10
        0x080022b4:    8d60        `.      LDRH     r0,[r4,#0x2a]
        0x080022b6:    28ff        .(      CMP      r0,#0xff
        0x080022b8:    d904        ..      BLS      0x80022c4 ; I2C_Master_ISR_DMA + 120
        0x080022ba:    20ff        .       MOVS     r0,#0xff
        0x080022bc:    8520         .      STRH     r0,[r4,#0x28]
        0x080022be:    f04f7380    O..s    MOV      r3,#0x1000000
        0x080022c2:    e008        ..      B        0x80022d6 ; I2C_Master_ISR_DMA + 138
        0x080022c4:    8d60        `.      LDRH     r0,[r4,#0x2a]
        0x080022c6:    8520         .      STRH     r0,[r4,#0x28]
        0x080022c8:    6ae0        .j      LDR      r0,[r4,#0x2c]
        0x080022ca:    4290        .B      CMP      r0,r2
        0x080022cc:    d001        ..      BEQ      0x80022d2 ; I2C_Master_ISR_DMA + 134
        0x080022ce:    6ae3        .j      LDR      r3,[r4,#0x2c]
        0x080022d0:    e001        ..      B        0x80022d6 ; I2C_Master_ISR_DMA + 138
        0x080022d2:    f04f7300    O..s    MOV      r3,#0x2000000
        0x080022d6:    9500        ..      STR      r5,[sp,#0]
        0x080022d8:    f8942028    ..(     LDRB     r2,[r4,#0x28]
        0x080022dc:    4620         F      MOV      r0,r4
        0x080022de:    f000fa37    ..7.    BL       I2C_TransferConfig ; 0x8002750
        0x080022e2:    8d60        `.      LDRH     r0,[r4,#0x2a]
        0x080022e4:    8d21        !.      LDRH     r1,[r4,#0x28]
        0x080022e6:    1a40        @.      SUBS     r0,r0,r1
        0x080022e8:    8560        `.      STRH     r0,[r4,#0x2a]
        0x080022ea:    f8940041    ..A.    LDRB     r0,[r4,#0x41]
        0x080022ee:    2822        "(      CMP      r0,#0x22
        0x080022f0:    6820         h      LDR      r0,[r4,#0]
        0x080022f2:    6801        .h      LDR      r1,[r0,#0]
        0x080022f4:    d003        ..      BEQ      0x80022fe ; I2C_Master_ISR_DMA + 178
        0x080022f6:    f4414180    A..A    ORR      r1,r1,#0x4000
        0x080022fa:    6001        .`      STR      r1,[r0,#0]
        0x080022fc:    e027        '.      B        0x800234e ; I2C_Master_ISR_DMA + 258
        0x080022fe:    f4414100    A..A    ORR      r1,r1,#0x8000
        0x08002302:    e7fa        ..      B        0x80022fa ; I2C_Master_ISR_DMA + 174
        0x08002304:    0180        ..      LSLS     r0,r0,#6
        0x08002306:    d517        ..      BPL      0x8002338 ; I2C_Master_ISR_DMA + 236
        0x08002308:    e005        ..      B        0x8002316 ; I2C_Master_ISR_DMA + 202
        0x0800230a:    065e        ^.      LSLS     r6,r3,#25
        0x0800230c:    d418        ..      BMI      0x8002340 ; I2C_Master_ISR_DMA + 244
        0x0800230e:    0646        F.      LSLS     r6,r0,#25
        0x08002310:    d416        ..      BMI      0x8002340 ; I2C_Master_ISR_DMA + 244
        0x08002312:    8d60        `.      LDRH     r0,[r4,#0x2a]
        0x08002314:    b120         .      CBZ      r0,0x8002320 ; I2C_Master_ISR_DMA + 212
        0x08002316:    2140        @!      MOVS     r1,#0x40
        0x08002318:    4620         F      MOV      r0,r4
        0x0800231a:    f7fffd93    ....    BL       I2C_ITError ; 0x8001e44
        0x0800231e:    e016        ..      B        0x800234e ; I2C_Master_ISR_DMA + 258
        0x08002320:    6820         h      LDR      r0,[r4,#0]
        0x08002322:    6841        Ah      LDR      r1,[r0,#4]
        0x08002324:    0189        ..      LSLS     r1,r1,#6
        0x08002326:    d412        ..      BMI      0x800234e ; I2C_Master_ISR_DMA + 258
        0x08002328:    6ae1        .j      LDR      r1,[r4,#0x2c]
        0x0800232a:    4291        .B      CMP      r1,r2
        0x0800232c:    d104        ..      BNE      0x8002338 ; I2C_Master_ISR_DMA + 236
        0x0800232e:    6841        Ah      LDR      r1,[r0,#4]
        0x08002330:    f4414180    A..A    ORR      r1,r1,#0x4000
        0x08002334:    6041        A`      STR      r1,[r0,#4]
        0x08002336:    e00a        ..      B        0x800234e ; I2C_Master_ISR_DMA + 258
        0x08002338:    4620         F      MOV      r0,r4
        0x0800233a:    f7fffe7d    ..}.    BL       I2C_ITMasterSeqCplt ; 0x8002038
        0x0800233e:    e006        ..      B        0x800234e ; I2C_Master_ISR_DMA + 258
        0x08002340:    069a        ..      LSLS     r2,r3,#26
        0x08002342:    d404        ..      BMI      0x800234e ; I2C_Master_ISR_DMA + 258
        0x08002344:    0680        ..      LSLS     r0,r0,#26
        0x08002346:    d402        ..      BMI      0x800234e ; I2C_Master_ISR_DMA + 258
        0x08002348:    4620         F      MOV      r0,r4
        0x0800234a:    f7fffe1b    ....    BL       I2C_ITMasterCplt ; 0x8001f84
        0x0800234e:    f8845040    ..@P    STRB     r5,[r4,#0x40]
        0x08002352:    2000        .       MOVS     r0,#0
        0x08002354:    bdf8        ..      POP      {r3-r7,pc}
    $d
        0x08002356:    0000        ..      DCW    0
        0x08002358:    ffff0000    ....    DCD    4294901760
    $t
    i.I2C_Master_ISR_IT
    I2C_Master_ISR_IT
        0x0800235c:    b5f8        ..      PUSH     {r3-r7,lr}
        0x0800235e:    4604        .F      MOV      r4,r0
        0x08002360:    f8900040    ..@.    LDRB     r0,[r0,#0x40]
        0x08002364:    460e        .F      MOV      r6,r1
        0x08002366:    2801        .(      CMP      r0,#1
        0x08002368:    d016        ..      BEQ      0x8002398 ; I2C_Master_ISR_IT + 60
        0x0800236a:    2001        .       MOVS     r0,#1
        0x0800236c:    f8840040    ..@.    STRB     r0,[r4,#0x40]
        0x08002370:    43f0        .C      MVNS     r0,r6
        0x08002372:    06c1        ..      LSLS     r1,r0,#27
        0x08002374:    f04f0700    O...    MOV      r7,#0
        0x08002378:    ea6f0502    o...    MVN      r5,r2
        0x0800237c:    d40e        ..      BMI      0x800239c ; I2C_Master_ISR_IT + 64
        0x0800237e:    06e9        ..      LSLS     r1,r5,#27
        0x08002380:    d40c        ..      BMI      0x800239c ; I2C_Master_ISR_IT + 64
        0x08002382:    6821        !h      LDR      r1,[r4,#0]
        0x08002384:    2010        .       MOVS     r0,#0x10
        0x08002386:    61c8        .a      STR      r0,[r1,#0x1c]
        0x08002388:    6c60        `l      LDR      r0,[r4,#0x44]
        0x0800238a:    f0400004    @...    ORR      r0,r0,#4
        0x0800238e:    6460        `d      STR      r0,[r4,#0x44]
        0x08002390:    4620         F      MOV      r0,r4
        0x08002392:    f7fffd01    ....    BL       I2C_Flush_TXDR ; 0x8001d98
        0x08002396:    e055        U.      B        0x8002444 ; I2C_Master_ISR_IT + 232
        0x08002398:    2002        .       MOVS     r0,#2
        0x0800239a:    bdf8        ..      POP      {r3-r7,pc}
        0x0800239c:    0741        A.      LSLS     r1,r0,#29
        0x0800239e:    d408        ..      BMI      0x80023b2 ; I2C_Master_ISR_IT + 86
        0x080023a0:    0769        i.      LSLS     r1,r5,#29
        0x080023a2:    d406        ..      BMI      0x80023b2 ; I2C_Master_ISR_IT + 86
        0x080023a4:    6820         h      LDR      r0,[r4,#0]
        0x080023a6:    f0260604    &...    BIC      r6,r6,#4
        0x080023aa:    6a40        @j      LDR      r0,[r0,#0x24]
        0x080023ac:    6a61        aj      LDR      r1,[r4,#0x24]
        0x080023ae:    7008        .p      STRB     r0,[r1,#0]
        0x080023b0:    e007        ..      B        0x80023c2 ; I2C_Master_ISR_IT + 102
        0x080023b2:    0781        ..      LSLS     r1,r0,#30
        0x080023b4:    d40f        ..      BMI      0x80023d6 ; I2C_Master_ISR_IT + 122
        0x080023b6:    07a9        ..      LSLS     r1,r5,#30
        0x080023b8:    d40d        ..      BMI      0x80023d6 ; I2C_Master_ISR_IT + 122
        0x080023ba:    6a60        `j      LDR      r0,[r4,#0x24]
        0x080023bc:    6821        !h      LDR      r1,[r4,#0]
        0x080023be:    7800        .x      LDRB     r0,[r0,#0]
        0x080023c0:    6288        .b      STR      r0,[r1,#0x28]
        0x080023c2:    6a60        `j      LDR      r0,[r4,#0x24]
        0x080023c4:    1c40        @.      ADDS     r0,r0,#1
        0x080023c6:    6260        `b      STR      r0,[r4,#0x24]
        0x080023c8:    8d20         .      LDRH     r0,[r4,#0x28]
        0x080023ca:    1e40        @.      SUBS     r0,r0,#1
        0x080023cc:    8520         .      STRH     r0,[r4,#0x28]
        0x080023ce:    8d60        `.      LDRH     r0,[r4,#0x2a]
        0x080023d0:    1e40        @.      SUBS     r0,r0,#1
        0x080023d2:    8560        `.      STRH     r0,[r4,#0x2a]
        0x080023d4:    e036        6.      B        0x8002444 ; I2C_Master_ISR_IT + 232
        0x080023d6:    4a2a        *J      LDR      r2,[pc,#168] ; [0x8002480] = 0xffff0000
        0x080023d8:    0601        ..      LSLS     r1,r0,#24
        0x080023da:    d429        ).      BMI      0x8002430 ; I2C_Master_ISR_IT + 212
        0x080023dc:    0669        i.      LSLS     r1,r5,#25
        0x080023de:    d427        '.      BMI      0x8002430 ; I2C_Master_ISR_IT + 212
        0x080023e0:    8d60        `.      LDRH     r0,[r4,#0x2a]
        0x080023e2:    b108        ..      CBZ      r0,0x80023e8 ; I2C_Master_ISR_IT + 140
        0x080023e4:    8d20         .      LDRH     r0,[r4,#0x28]
        0x080023e6:    b120         .      CBZ      r0,0x80023f2 ; I2C_Master_ISR_IT + 150
        0x080023e8:    6820         h      LDR      r0,[r4,#0]
        0x080023ea:    6840        @h      LDR      r0,[r0,#4]
        0x080023ec:    0180        ..      LSLS     r0,r0,#6
        0x080023ee:    d542        B.      BPL      0x8002476 ; I2C_Master_ISR_IT + 282
        0x080023f0:    e024        $.      B        0x800243c ; I2C_Master_ISR_IT + 224
        0x080023f2:    6820         h      LDR      r0,[r4,#0]
        0x080023f4:    6840        @h      LDR      r0,[r0,#4]
        0x080023f6:    f3c00109    ....    UBFX     r1,r0,#0,#10
        0x080023fa:    8d60        `.      LDRH     r0,[r4,#0x2a]
        0x080023fc:    28ff        .(      CMP      r0,#0xff
        0x080023fe:    d905        ..      BLS      0x800240c ; I2C_Master_ISR_IT + 176
        0x08002400:    22ff        ."      MOVS     r2,#0xff
        0x08002402:    8522        ".      STRH     r2,[r4,#0x28]
        0x08002404:    f04f7380    O..s    MOV      r3,#0x1000000
        0x08002408:    9700        ..      STR      r7,[sp,#0]
        0x0800240a:    e00d        ..      B        0x8002428 ; I2C_Master_ISR_IT + 204
        0x0800240c:    8d60        `.      LDRH     r0,[r4,#0x2a]
        0x0800240e:    8520         .      STRH     r0,[r4,#0x28]
        0x08002410:    6ae0        .j      LDR      r0,[r4,#0x2c]
        0x08002412:    9700        ..      STR      r7,[sp,#0]
        0x08002414:    4290        .B      CMP      r0,r2
        0x08002416:    d003        ..      BEQ      0x8002420 ; I2C_Master_ISR_IT + 196
        0x08002418:    6ae3        .j      LDR      r3,[r4,#0x2c]
        0x0800241a:    f8942028    ..(     LDRB     r2,[r4,#0x28]
        0x0800241e:    e003        ..      B        0x8002428 ; I2C_Master_ISR_IT + 204
        0x08002420:    f8942028    ..(     LDRB     r2,[r4,#0x28]
        0x08002424:    f04f7300    O..s    MOV      r3,#0x2000000
        0x08002428:    4620         F      MOV      r0,r4
        0x0800242a:    f000f991    ....    BL       I2C_TransferConfig ; 0x8002750
        0x0800242e:    e009        ..      B        0x8002444 ; I2C_Master_ISR_IT + 232
        0x08002430:    0640        @.      LSLS     r0,r0,#25
        0x08002432:    d407        ..      BMI      0x8002444 ; I2C_Master_ISR_IT + 232
        0x08002434:    0668        h.      LSLS     r0,r5,#25
        0x08002436:    d405        ..      BMI      0x8002444 ; I2C_Master_ISR_IT + 232
        0x08002438:    8d60        `.      LDRH     r0,[r4,#0x2a]
        0x0800243a:    b180        ..      CBZ      r0,0x800245e ; I2C_Master_ISR_IT + 258
        0x0800243c:    2140        @!      MOVS     r1,#0x40
        0x0800243e:    4620         F      MOV      r0,r4
        0x08002440:    f7fffd00    ....    BL       I2C_ITError ; 0x8001e44
        0x08002444:    43f0        .C      MVNS     r0,r6
        0x08002446:    0680        ..      LSLS     r0,r0,#26
        0x08002448:    d405        ..      BMI      0x8002456 ; I2C_Master_ISR_IT + 250
        0x0800244a:    06a8        ..      LSLS     r0,r5,#26
        0x0800244c:    d403        ..      BMI      0x8002456 ; I2C_Master_ISR_IT + 250
        0x0800244e:    4631        1F      MOV      r1,r6
        0x08002450:    4620         F      MOV      r0,r4
        0x08002452:    f7fffd97    ....    BL       I2C_ITMasterCplt ; 0x8001f84
        0x08002456:    f8847040    ..@p    STRB     r7,[r4,#0x40]
        0x0800245a:    2000        .       MOVS     r0,#0
        0x0800245c:    bdf8        ..      POP      {r3-r7,pc}
        0x0800245e:    6820         h      LDR      r0,[r4,#0]
        0x08002460:    6841        Ah      LDR      r1,[r0,#4]
        0x08002462:    0189        ..      LSLS     r1,r1,#6
        0x08002464:    d4ee        ..      BMI      0x8002444 ; I2C_Master_ISR_IT + 232
        0x08002466:    6ae1        .j      LDR      r1,[r4,#0x2c]
        0x08002468:    4291        .B      CMP      r1,r2
        0x0800246a:    d104        ..      BNE      0x8002476 ; I2C_Master_ISR_IT + 282
        0x0800246c:    6841        Ah      LDR      r1,[r0,#4]
        0x0800246e:    f4414180    A..A    ORR      r1,r1,#0x4000
        0x08002472:    6041        A`      STR      r1,[r0,#4]
        0x08002474:    e7e6        ..      B        0x8002444 ; I2C_Master_ISR_IT + 232
        0x08002476:    4620         F      MOV      r0,r4
        0x08002478:    f7fffdde    ....    BL       I2C_ITMasterSeqCplt ; 0x8002038
        0x0800247c:    e7e2        ..      B        0x8002444 ; I2C_Master_ISR_IT + 232
    $d
        0x0800247e:    0000        ..      DCW    0
        0x08002480:    ffff0000    ....    DCD    4294901760
    $t
    i.I2C_RequestMemoryRead
    I2C_RequestMemoryRead
        0x08002484:    e92d43f8    -..C    PUSH     {r3-r9,lr}
        0x08002488:    4604        .F      MOV      r4,r0
        0x0800248a:    4616        .F      MOV      r6,r2
        0x0800248c:    e9dd9708    ....    LDRD     r9,r7,[sp,#0x20]
        0x08002490:    4814        .H      LDR      r0,[pc,#80] ; [0x80024e4] = 0x80002000
        0x08002492:    4698        .F      MOV      r8,r3
        0x08002494:    b2da        ..      UXTB     r2,r3
        0x08002496:    9000        ..      STR      r0,[sp,#0]
        0x08002498:    2300        .#      MOVS     r3,#0
        0x0800249a:    4620         F      MOV      r0,r4
        0x0800249c:    f000f958    ..X.    BL       I2C_TransferConfig ; 0x8002750
        0x080024a0:    463a        :F      MOV      r2,r7
        0x080024a2:    4649        IF      MOV      r1,r9
        0x080024a4:    4620         F      MOV      r0,r4
        0x080024a6:    f000f9bb    ....    BL       I2C_WaitOnTXISFlagUntilTimeout ; 0x8002820
        0x080024aa:    b9b8        ..      CBNZ     r0,0x80024dc ; I2C_RequestMemoryRead + 88
        0x080024ac:    b2f5        ..      UXTB     r5,r6
        0x080024ae:    f1b80f01    ....    CMP      r8,#1
        0x080024b2:    d008        ..      BEQ      0x80024c6 ; I2C_RequestMemoryRead + 66
        0x080024b4:    6821        !h      LDR      r1,[r4,#0]
        0x080024b6:    0a30        0.      LSRS     r0,r6,#8
        0x080024b8:    6288        .b      STR      r0,[r1,#0x28]
        0x080024ba:    463a        :F      MOV      r2,r7
        0x080024bc:    4649        IF      MOV      r1,r9
        0x080024be:    4620         F      MOV      r0,r4
        0x080024c0:    f000f9ae    ....    BL       I2C_WaitOnTXISFlagUntilTimeout ; 0x8002820
        0x080024c4:    b950        P.      CBNZ     r0,0x80024dc ; I2C_RequestMemoryRead + 88
        0x080024c6:    6820         h      LDR      r0,[r4,#0]
        0x080024c8:    6285        .b      STR      r5,[r0,#0x28]
        0x080024ca:    464b        KF      MOV      r3,r9
        0x080024cc:    2200        ."      MOVS     r2,#0
        0x080024ce:    2140        @!      MOVS     r1,#0x40
        0x080024d0:    4620         F      MOV      r0,r4
        0x080024d2:    9700        ..      STR      r7,[sp,#0]
        0x080024d4:    f000f952    ..R.    BL       I2C_WaitOnFlagUntilTimeout ; 0x800277c
        0x080024d8:    2800        .(      CMP      r0,#0
        0x080024da:    d000        ..      BEQ      0x80024de ; I2C_RequestMemoryRead + 90
        0x080024dc:    2001        .       MOVS     r0,#1
        0x080024de:    e8bd83f8    ....    POP      {r3-r9,pc}
    $d
        0x080024e2:    0000        ..      DCW    0
        0x080024e4:    80002000    . ..    DCD    2147491840
    $t
    i.I2C_RequestMemoryWrite
    I2C_RequestMemoryWrite
        0x080024e8:    e92d43f8    -..C    PUSH     {r3-r9,lr}
        0x080024ec:    4604        .F      MOV      r4,r0
        0x080024ee:    4616        .F      MOV      r6,r2
        0x080024f0:    4815        .H      LDR      r0,[pc,#84] ; [0x8002548] = 0x80002000
        0x080024f2:    4698        .F      MOV      r8,r3
        0x080024f4:    e9dd9708    ....    LDRD     r9,r7,[sp,#0x20]
        0x080024f8:    b2da        ..      UXTB     r2,r3
        0x080024fa:    02c3        ..      LSLS     r3,r0,#11
        0x080024fc:    9000        ..      STR      r0,[sp,#0]
        0x080024fe:    4620         F      MOV      r0,r4
        0x08002500:    f000f926    ..&.    BL       I2C_TransferConfig ; 0x8002750
        0x08002504:    463a        :F      MOV      r2,r7
        0x08002506:    4649        IF      MOV      r1,r9
        0x08002508:    4620         F      MOV      r0,r4
        0x0800250a:    f000f989    ....    BL       I2C_WaitOnTXISFlagUntilTimeout ; 0x8002820
        0x0800250e:    b9b8        ..      CBNZ     r0,0x8002540 ; I2C_RequestMemoryWrite + 88
        0x08002510:    b2f5        ..      UXTB     r5,r6
        0x08002512:    f1b80f01    ....    CMP      r8,#1
        0x08002516:    d008        ..      BEQ      0x800252a ; I2C_RequestMemoryWrite + 66
        0x08002518:    6821        !h      LDR      r1,[r4,#0]
        0x0800251a:    0a30        0.      LSRS     r0,r6,#8
        0x0800251c:    6288        .b      STR      r0,[r1,#0x28]
        0x0800251e:    463a        :F      MOV      r2,r7
        0x08002520:    4649        IF      MOV      r1,r9
        0x08002522:    4620         F      MOV      r0,r4
        0x08002524:    f000f97c    ..|.    BL       I2C_WaitOnTXISFlagUntilTimeout ; 0x8002820
        0x08002528:    b950        P.      CBNZ     r0,0x8002540 ; I2C_RequestMemoryWrite + 88
        0x0800252a:    6820         h      LDR      r0,[r4,#0]
        0x0800252c:    6285        .b      STR      r5,[r0,#0x28]
        0x0800252e:    464b        KF      MOV      r3,r9
        0x08002530:    2200        ."      MOVS     r2,#0
        0x08002532:    2180        .!      MOVS     r1,#0x80
        0x08002534:    4620         F      MOV      r0,r4
        0x08002536:    9700        ..      STR      r7,[sp,#0]
        0x08002538:    f000f920    .. .    BL       I2C_WaitOnFlagUntilTimeout ; 0x800277c
        0x0800253c:    2800        .(      CMP      r0,#0
        0x0800253e:    d000        ..      BEQ      0x8002542 ; I2C_RequestMemoryWrite + 90
        0x08002540:    2001        .       MOVS     r0,#1
        0x08002542:    e8bd83f8    ....    POP      {r3-r9,pc}
    $d
        0x08002546:    0000        ..      DCW    0
        0x08002548:    80002000    . ..    DCD    2147491840
    $t
    i.I2C_Slave_ISR_DMA
    I2C_Slave_ISR_DMA
        0x0800254c:    e92d41f0    -..A    PUSH     {r4-r8,lr}
        0x08002550:    6ac3        .j      LDR      r3,[r0,#0x2c]
        0x08002552:    4604        .F      MOV      r4,r0
        0x08002554:    f8900040    ..@.    LDRB     r0,[r0,#0x40]
        0x08002558:    2500        .%      MOVS     r5,#0
        0x0800255a:    2801        .(      CMP      r0,#1
        0x0800255c:    d017        ..      BEQ      0x800258e ; I2C_Slave_ISR_DMA + 66
        0x0800255e:    2001        .       MOVS     r0,#1
        0x08002560:    f8840040    ..@.    STRB     r0,[r4,#0x40]
        0x08002564:    43ce        .C      MVNS     r6,r1
        0x08002566:    06f7        ..      LSLS     r7,r6,#27
        0x08002568:    ea6f0002    o...    MVN      r0,r2
        0x0800256c:    d449        I.      BMI      0x8002602 ; I2C_Slave_ISR_DMA + 182
        0x0800256e:    06c2        ..      LSLS     r2,r0,#27
        0x08002570:    d447        G.      BMI      0x8002602 ; I2C_Slave_ISR_DMA + 182
        0x08002572:    0446        F.      LSLS     r6,r0,#17
        0x08002574:    f04f0210    O...    MOV      r2,#0x10
        0x08002578:    d501        ..      BPL      0x800257e ; I2C_Slave_ISR_DMA + 50
        0x0800257a:    0406        ..      LSLS     r6,r0,#16
        0x0800257c:    d43e        >.      BMI      0x80025fc ; I2C_Slave_ISR_DMA + 176
        0x0800257e:    6be6        .k      LDR      r6,[r4,#0x3c]
        0x08002580:    b14e        N.      CBZ      r6,0x8002596 ; I2C_Slave_ISR_DMA + 74
        0x08002582:    0407        ..      LSLS     r7,r0,#16
        0x08002584:    d407        ..      BMI      0x8002596 ; I2C_Slave_ISR_DMA + 74
        0x08002586:    6836        6h      LDR      r6,[r6,#0]
        0x08002588:    6876        vh      LDR      r6,[r6,#4]
        0x0800258a:    b11e        ..      CBZ      r6,0x8002594 ; I2C_Slave_ISR_DMA + 72
        0x0800258c:    e003        ..      B        0x8002596 ; I2C_Slave_ISR_DMA + 74
        0x0800258e:    2002        .       MOVS     r0,#2
        0x08002590:    e8bd81f0    ....    POP      {r4-r8,pc}
        0x08002594:    2501        .%      MOVS     r5,#1
        0x08002596:    6ba6        .k      LDR      r6,[r4,#0x38]
        0x08002598:    b126        &.      CBZ      r6,0x80025a4 ; I2C_Slave_ISR_DMA + 88
        0x0800259a:    0440        @.      LSLS     r0,r0,#17
        0x0800259c:    d402        ..      BMI      0x80025a4 ; I2C_Slave_ISR_DMA + 88
        0x0800259e:    6830        0h      LDR      r0,[r6,#0]
        0x080025a0:    6840        @h      LDR      r0,[r0,#4]
        0x080025a2:    b100        ..      CBZ      r0,0x80025a6 ; I2C_Slave_ISR_DMA + 90
        0x080025a4:    b1dd        ..      CBZ      r5,0x80025de ; I2C_Slave_ISR_DMA + 146
        0x080025a6:    f8940041    ..A.    LDRB     r0,[r4,#0x41]
        0x080025aa:    2828        ((      CMP      r0,#0x28
        0x080025ac:    d102        ..      BNE      0x80025b4 ; I2C_Slave_ISR_DMA + 104
        0x080025ae:    f1b37f00    ....    CMP      r3,#0x2000000
        0x080025b2:    d004        ..      BEQ      0x80025be ; I2C_Slave_ISR_DMA + 114
        0x080025b4:    f8940041    ..A.    LDRB     r0,[r4,#0x41]
        0x080025b8:    2829        )(      CMP      r0,#0x29
        0x080025ba:    d004        ..      BEQ      0x80025c6 ; I2C_Slave_ISR_DMA + 122
        0x080025bc:    e01e        ..      B        0x80025fc ; I2C_Slave_ISR_DMA + 176
        0x080025be:    4620         F      MOV      r0,r4
        0x080025c0:    f7fffcb0    ....    BL       I2C_ITListenCplt ; 0x8001f24
        0x080025c4:    e02c        ,.      B        0x8002620 ; I2C_Slave_ISR_DMA + 212
        0x080025c6:    f5133f80    ...?    CMN      r3,#0x10000
        0x080025ca:    d017        ..      BEQ      0x80025fc ; I2C_Slave_ISR_DMA + 176
        0x080025cc:    6820         h      LDR      r0,[r4,#0]
        0x080025ce:    61c2        .a      STR      r2,[r0,#0x1c]
        0x080025d0:    4620         F      MOV      r0,r4
        0x080025d2:    f7fffbe1    ....    BL       I2C_Flush_TXDR ; 0x8001d98
        0x080025d6:    4620         F      MOV      r0,r4
        0x080025d8:    f7fffdcc    ....    BL       I2C_ITSlaveSeqCplt ; 0x8002174
        0x080025dc:    e020         .      B        0x8002620 ; I2C_Slave_ISR_DMA + 212
        0x080025de:    6820         h      LDR      r0,[r4,#0]
        0x080025e0:    61c2        .a      STR      r2,[r0,#0x1c]
        0x080025e2:    6c60        `l      LDR      r0,[r4,#0x44]
        0x080025e4:    f0400004    @...    ORR      r0,r0,#4
        0x080025e8:    6460        `d      STR      r0,[r4,#0x44]
        0x080025ea:    b113        ..      CBZ      r3,0x80025f2 ; I2C_Slave_ISR_DMA + 166
        0x080025ec:    f1b37f80    ....    CMP      r3,#0x1000000
        0x080025f0:    d116        ..      BNE      0x8002620 ; I2C_Slave_ISR_DMA + 212
        0x080025f2:    6c61        al      LDR      r1,[r4,#0x44]
        0x080025f4:    4620         F      MOV      r0,r4
        0x080025f6:    f7fffc25    ..%.    BL       I2C_ITError ; 0x8001e44
        0x080025fa:    e011        ..      B        0x8002620 ; I2C_Slave_ISR_DMA + 212
        0x080025fc:    6820         h      LDR      r0,[r4,#0]
        0x080025fe:    61c2        .a      STR      r2,[r0,#0x1c]
        0x08002600:    e00e        ..      B        0x8002620 ; I2C_Slave_ISR_DMA + 212
        0x08002602:    0732        2.      LSLS     r2,r6,#28
        0x08002604:    d405        ..      BMI      0x8002612 ; I2C_Slave_ISR_DMA + 198
        0x08002606:    0702        ..      LSLS     r2,r0,#28
        0x08002608:    d403        ..      BMI      0x8002612 ; I2C_Slave_ISR_DMA + 198
        0x0800260a:    4620         F      MOV      r0,r4
        0x0800260c:    f7fffbd5    ....    BL       I2C_ITAddrCplt ; 0x8001dba
        0x08002610:    e006        ..      B        0x8002620 ; I2C_Slave_ISR_DMA + 212
        0x08002612:    06b2        ..      LSLS     r2,r6,#26
        0x08002614:    d404        ..      BMI      0x8002620 ; I2C_Slave_ISR_DMA + 212
        0x08002616:    0680        ..      LSLS     r0,r0,#26
        0x08002618:    d402        ..      BMI      0x8002620 ; I2C_Slave_ISR_DMA + 212
        0x0800261a:    4620         F      MOV      r0,r4
        0x0800261c:    f7fffd32    ..2.    BL       I2C_ITSlaveCplt ; 0x8002084
        0x08002620:    2000        .       MOVS     r0,#0
        0x08002622:    f8840040    ..@.    STRB     r0,[r4,#0x40]
        0x08002626:    e7b3        ..      B        0x8002590 ; I2C_Slave_ISR_DMA + 68
    i.I2C_Slave_ISR_IT
    I2C_Slave_ISR_IT
        0x08002628:    e92d41f0    -..A    PUSH     {r4-r8,lr}
        0x0800262c:    4604        .F      MOV      r4,r0
        0x0800262e:    6ac0        .j      LDR      r0,[r0,#0x2c]
        0x08002630:    460d        .F      MOV      r5,r1
        0x08002632:    f8941040    ..@.    LDRB     r1,[r4,#0x40]
        0x08002636:    2901        .)      CMP      r1,#1
        0x08002638:    d01e        ..      BEQ      0x8002678 ; I2C_Slave_ISR_IT + 80
        0x0800263a:    2101        .!      MOVS     r1,#1
        0x0800263c:    f8841040    ..@.    STRB     r1,[r4,#0x40]
        0x08002640:    43e9        .C      MVNS     r1,r5
        0x08002642:    4b42        BK      LDR      r3,[pc,#264] ; [0x800274c] = 0xffff0000
        0x08002644:    ea5f6cc1    _..l    LSLS     r12,r1,#27
        0x08002648:    f04f7780    O..w    MOV      r7,#0x1000000
        0x0800264c:    ea6f0602    o...    MVN      r6,r2
        0x08002650:    d431        1.      BMI      0x80026b6 ; I2C_Slave_ISR_IT + 142
        0x08002652:    06f2        ..      LSLS     r2,r6,#27
        0x08002654:    d42f        /.      BMI      0x80026b6 ; I2C_Slave_ISR_IT + 142
        0x08002656:    8d62        b.      LDRH     r2,[r4,#0x2a]
        0x08002658:    2110        .!      MOVS     r1,#0x10
        0x0800265a:    b182        ..      CBZ      r2,0x800267e ; I2C_Slave_ISR_IT + 86
        0x0800265c:    6822        "h      LDR      r2,[r4,#0]
        0x0800265e:    61d1        .a      STR      r1,[r2,#0x1c]
        0x08002660:    6c61        al      LDR      r1,[r4,#0x44]
        0x08002662:    f0410104    A...    ORR      r1,r1,#4
        0x08002666:    6461        ad      STR      r1,[r4,#0x44]
        0x08002668:    b108        ..      CBZ      r0,0x800266e ; I2C_Slave_ISR_IT + 70
        0x0800266a:    42b8        .B      CMP      r0,r7
        0x0800266c:    d160        `.      BNE      0x8002730 ; I2C_Slave_ISR_IT + 264
        0x0800266e:    6c61        al      LDR      r1,[r4,#0x44]
        0x08002670:    4620         F      MOV      r0,r4
        0x08002672:    f7fffbe7    ....    BL       I2C_ITError ; 0x8001e44
        0x08002676:    e05b        [.      B        0x8002730 ; I2C_Slave_ISR_IT + 264
        0x08002678:    2002        .       MOVS     r0,#2
        0x0800267a:    e8bd81f0    ....    POP      {r4-r8,pc}
        0x0800267e:    f8942041    ..A     LDRB     r2,[r4,#0x41]
        0x08002682:    2a28        (*      CMP      r2,#0x28
        0x08002684:    d102        ..      BNE      0x800268c ; I2C_Slave_ISR_IT + 100
        0x08002686:    f1b07f00    ....    CMP      r0,#0x2000000
        0x0800268a:    d004        ..      BEQ      0x8002696 ; I2C_Slave_ISR_IT + 110
        0x0800268c:    f8942041    ..A     LDRB     r2,[r4,#0x41]
        0x08002690:    2a29        )*      CMP      r2,#0x29
        0x08002692:    d005        ..      BEQ      0x80026a0 ; I2C_Slave_ISR_IT + 120
        0x08002694:    e00c        ..      B        0x80026b0 ; I2C_Slave_ISR_IT + 136
        0x08002696:    4629        )F      MOV      r1,r5
        0x08002698:    4620         F      MOV      r0,r4
        0x0800269a:    f7fffc43    ..C.    BL       I2C_ITListenCplt ; 0x8001f24
        0x0800269e:    e047        G.      B        0x8002730 ; I2C_Slave_ISR_IT + 264
        0x080026a0:    4298        .B      CMP      r0,r3
        0x080026a2:    d005        ..      BEQ      0x80026b0 ; I2C_Slave_ISR_IT + 136
        0x080026a4:    6820         h      LDR      r0,[r4,#0]
        0x080026a6:    61c1        .a      STR      r1,[r0,#0x1c]
        0x080026a8:    4620         F      MOV      r0,r4
        0x080026aa:    f7fffb75    ..u.    BL       I2C_Flush_TXDR ; 0x8001d98
        0x080026ae:    e03c        <.      B        0x800272a ; I2C_Slave_ISR_IT + 258
        0x080026b0:    6820         h      LDR      r0,[r4,#0]
        0x080026b2:    61c1        .a      STR      r1,[r0,#0x1c]
        0x080026b4:    e03c        <.      B        0x8002730 ; I2C_Slave_ISR_IT + 264
        0x080026b6:    074a        J.      LSLS     r2,r1,#29
        0x080026b8:    d417        ..      BMI      0x80026ea ; I2C_Slave_ISR_IT + 194
        0x080026ba:    0772        r.      LSLS     r2,r6,#29
        0x080026bc:    d415        ..      BMI      0x80026ea ; I2C_Slave_ISR_IT + 194
        0x080026be:    8d61        a.      LDRH     r1,[r4,#0x2a]
        0x080026c0:    b171        q.      CBZ      r1,0x80026e0 ; I2C_Slave_ISR_IT + 184
        0x080026c2:    6821        !h      LDR      r1,[r4,#0]
        0x080026c4:    f0250504    %...    BIC      r5,r5,#4
        0x080026c8:    6a49        Ij      LDR      r1,[r1,#0x24]
        0x080026ca:    6a62        bj      LDR      r2,[r4,#0x24]
        0x080026cc:    7011        .p      STRB     r1,[r2,#0]
        0x080026ce:    6a61        aj      LDR      r1,[r4,#0x24]
        0x080026d0:    1c49        I.      ADDS     r1,r1,#1
        0x080026d2:    6261        ab      STR      r1,[r4,#0x24]
        0x080026d4:    8d21        !.      LDRH     r1,[r4,#0x28]
        0x080026d6:    1e49        I.      SUBS     r1,r1,#1
        0x080026d8:    8521        !.      STRH     r1,[r4,#0x28]
        0x080026da:    8d61        a.      LDRH     r1,[r4,#0x2a]
        0x080026dc:    1e49        I.      SUBS     r1,r1,#1
        0x080026de:    8561        a.      STRH     r1,[r4,#0x2a]
        0x080026e0:    8d61        a.      LDRH     r1,[r4,#0x2a]
        0x080026e2:    bb29        ).      CBNZ     r1,0x8002730 ; I2C_Slave_ISR_IT + 264
        0x080026e4:    4298        .B      CMP      r0,r3
        0x080026e6:    d120         .      BNE      0x800272a ; I2C_Slave_ISR_IT + 258
        0x080026e8:    e022        ".      B        0x8002730 ; I2C_Slave_ISR_IT + 264
        0x080026ea:    070a        ..      LSLS     r2,r1,#28
        0x080026ec:    d406        ..      BMI      0x80026fc ; I2C_Slave_ISR_IT + 212
        0x080026ee:    0732        2.      LSLS     r2,r6,#28
        0x080026f0:    d404        ..      BMI      0x80026fc ; I2C_Slave_ISR_IT + 212
        0x080026f2:    4629        )F      MOV      r1,r5
        0x080026f4:    4620         F      MOV      r0,r4
        0x080026f6:    f7fffb60    ..`.    BL       I2C_ITAddrCplt ; 0x8001dba
        0x080026fa:    e019        ..      B        0x8002730 ; I2C_Slave_ISR_IT + 264
        0x080026fc:    0789        ..      LSLS     r1,r1,#30
        0x080026fe:    d417        ..      BMI      0x8002730 ; I2C_Slave_ISR_IT + 264
        0x08002700:    07b1        ..      LSLS     r1,r6,#30
        0x08002702:    d415        ..      BMI      0x8002730 ; I2C_Slave_ISR_IT + 264
        0x08002704:    8d61        a.      LDRH     r1,[r4,#0x2a]
        0x08002706:    b169        i.      CBZ      r1,0x8002724 ; I2C_Slave_ISR_IT + 252
        0x08002708:    6a60        `j      LDR      r0,[r4,#0x24]
        0x0800270a:    6821        !h      LDR      r1,[r4,#0]
        0x0800270c:    7800        .x      LDRB     r0,[r0,#0]
        0x0800270e:    6288        .b      STR      r0,[r1,#0x28]
        0x08002710:    6a60        `j      LDR      r0,[r4,#0x24]
        0x08002712:    1c40        @.      ADDS     r0,r0,#1
        0x08002714:    6260        `b      STR      r0,[r4,#0x24]
        0x08002716:    8d60        `.      LDRH     r0,[r4,#0x2a]
        0x08002718:    1e40        @.      SUBS     r0,r0,#1
        0x0800271a:    8560        `.      STRH     r0,[r4,#0x2a]
        0x0800271c:    8d20         .      LDRH     r0,[r4,#0x28]
        0x0800271e:    1e40        @.      SUBS     r0,r0,#1
        0x08002720:    8520         .      STRH     r0,[r4,#0x28]
        0x08002722:    e005        ..      B        0x8002730 ; I2C_Slave_ISR_IT + 264
        0x08002724:    42b8        .B      CMP      r0,r7
        0x08002726:    d000        ..      BEQ      0x800272a ; I2C_Slave_ISR_IT + 258
        0x08002728:    b910        ..      CBNZ     r0,0x8002730 ; I2C_Slave_ISR_IT + 264
        0x0800272a:    4620         F      MOV      r0,r4
        0x0800272c:    f7fffd22    ..".    BL       I2C_ITSlaveSeqCplt ; 0x8002174
        0x08002730:    43e8        .C      MVNS     r0,r5
        0x08002732:    0680        ..      LSLS     r0,r0,#26
        0x08002734:    d405        ..      BMI      0x8002742 ; I2C_Slave_ISR_IT + 282
        0x08002736:    06b0        ..      LSLS     r0,r6,#26
        0x08002738:    d403        ..      BMI      0x8002742 ; I2C_Slave_ISR_IT + 282
        0x0800273a:    4629        )F      MOV      r1,r5
        0x0800273c:    4620         F      MOV      r0,r4
        0x0800273e:    f7fffca1    ....    BL       I2C_ITSlaveCplt ; 0x8002084
        0x08002742:    2000        .       MOVS     r0,#0
        0x08002744:    f8840040    ..@.    STRB     r0,[r4,#0x40]
        0x08002748:    e797        ..      B        0x800267a ; I2C_Slave_ISR_IT + 82
    $d
        0x0800274a:    0000        ..      DCW    0
        0x0800274c:    ffff0000    ....    DCD    4294901760
    $t
    i.I2C_TransferConfig
    I2C_TransferConfig
        0x08002750:    b5f0        ..      PUSH     {r4-r7,lr}
        0x08002752:    6805        .h      LDR      r5,[r0,#0]
        0x08002754:    9c05        ..      LDR      r4,[sp,#0x14]
        0x08002756:    6868        hh      LDR      r0,[r5,#4]
        0x08002758:    f44f6680    O..f    MOV      r6,#0x400
        0x0800275c:    4f06        .O      LDR      r7,[pc,#24] ; [0x8002778] = 0x3ff63ff
        0x0800275e:    f3c10109    ....    UBFX     r1,r1,#0,#10
        0x08002762:    ea065654    ..TV    AND      r6,r6,r4,LSR #21
        0x08002766:    ea414102    A..A    ORR      r1,r1,r2,LSL #16
        0x0800276a:    433e        >C      ORRS     r6,r6,r7
        0x0800276c:    4319        .C      ORRS     r1,r1,r3
        0x0800276e:    43b0        .C      BICS     r0,r0,r6
        0x08002770:    4321        !C      ORRS     r1,r1,r4
        0x08002772:    4308        .C      ORRS     r0,r0,r1
        0x08002774:    6068        h`      STR      r0,[r5,#4]
        0x08002776:    bdf0        ..      POP      {r4-r7,pc}
    $d
        0x08002778:    03ff63ff    .c..    DCD    67068927
    $t
    i.I2C_WaitOnFlagUntilTimeout
    I2C_WaitOnFlagUntilTimeout
        0x0800277c:    e92d41f0    -..A    PUSH     {r4-r8,lr}
        0x08002780:    461d        .F      MOV      r5,r3
        0x08002782:    4617        .F      MOV      r7,r2
        0x08002784:    460e        .F      MOV      r6,r1
        0x08002786:    4604        .F      MOV      r4,r0
        0x08002788:    f8dd8018    ....    LDR      r8,[sp,#0x18]
        0x0800278c:    e008        ..      B        0x80027a0 ; I2C_WaitOnFlagUntilTimeout + 36
        0x0800278e:    1c68        h.      ADDS     r0,r5,#1
        0x08002790:    d006        ..      BEQ      0x80027a0 ; I2C_WaitOnFlagUntilTimeout + 36
        0x08002792:    f7fef83f    ..?.    BL       HAL_GetTick ; 0x8000814
        0x08002796:    eba00008    ....    SUB      r0,r0,r8
        0x0800279a:    42a8        .B      CMP      r0,r5
        0x0800279c:    d80b        ..      BHI      0x80027b6 ; I2C_WaitOnFlagUntilTimeout + 58
        0x0800279e:    b155        U.      CBZ      r5,0x80027b6 ; I2C_WaitOnFlagUntilTimeout + 58
        0x080027a0:    6820         h      LDR      r0,[r4,#0]
        0x080027a2:    6980        .i      LDR      r0,[r0,#0x18]
        0x080027a4:    ea360000    6...    BICS     r0,r6,r0
        0x080027a8:    d012        ..      BEQ      0x80027d0 ; I2C_WaitOnFlagUntilTimeout + 84
        0x080027aa:    2000        .       MOVS     r0,#0
        0x080027ac:    42b8        .B      CMP      r0,r7
        0x080027ae:    d0ee        ..      BEQ      0x800278e ; I2C_WaitOnFlagUntilTimeout + 18
        0x080027b0:    2000        .       MOVS     r0,#0
        0x080027b2:    e8bd81f0    ....    POP      {r4-r8,pc}
        0x080027b6:    f8540f44    T.D.    LDR      r0,[r4,#0x44]!
        0x080027ba:    f0400020    @. .    ORR      r0,r0,#0x20
        0x080027be:    f8440904    D...    STR      r0,[r4],#-4
        0x080027c2:    2020                MOVS     r0,#0x20
        0x080027c4:    7060        `p      STRB     r0,[r4,#1]
        0x080027c6:    2000        .       MOVS     r0,#0
        0x080027c8:    70a0        .p      STRB     r0,[r4,#2]
        0x080027ca:    7020         p      STRB     r0,[r4,#0]
        0x080027cc:    2001        .       MOVS     r0,#1
        0x080027ce:    e7f0        ..      B        0x80027b2 ; I2C_WaitOnFlagUntilTimeout + 54
        0x080027d0:    2001        .       MOVS     r0,#1
        0x080027d2:    e7eb        ..      B        0x80027ac ; I2C_WaitOnFlagUntilTimeout + 48
    i.I2C_WaitOnSTOPFlagUntilTimeout
    I2C_WaitOnSTOPFlagUntilTimeout
        0x080027d4:    b570        p.      PUSH     {r4-r6,lr}
        0x080027d6:    4616        .F      MOV      r6,r2
        0x080027d8:    460d        .F      MOV      r5,r1
        0x080027da:    4604        .F      MOV      r4,r0
        0x080027dc:    e00d        ..      B        0x80027fa ; I2C_WaitOnSTOPFlagUntilTimeout + 38
        0x080027de:    4632        2F      MOV      r2,r6
        0x080027e0:    4629        )F      MOV      r1,r5
        0x080027e2:    4620         F      MOV      r0,r4
        0x080027e4:    f7fffcf0    ....    BL       I2C_IsAcknowledgeFailed ; 0x80021c8
        0x080027e8:    b108        ..      CBZ      r0,0x80027ee ; I2C_WaitOnSTOPFlagUntilTimeout + 26
        0x080027ea:    2001        .       MOVS     r0,#1
        0x080027ec:    bd70        p.      POP      {r4-r6,pc}
        0x080027ee:    f7fef811    ....    BL       HAL_GetTick ; 0x8000814
        0x080027f2:    1b80        ..      SUBS     r0,r0,r6
        0x080027f4:    42a8        .B      CMP      r0,r5
        0x080027f6:    d807        ..      BHI      0x8002808 ; I2C_WaitOnSTOPFlagUntilTimeout + 52
        0x080027f8:    b135        5.      CBZ      r5,0x8002808 ; I2C_WaitOnSTOPFlagUntilTimeout + 52
        0x080027fa:    6820         h      LDR      r0,[r4,#0]
        0x080027fc:    6980        .i      LDR      r0,[r0,#0x18]
        0x080027fe:    43c0        .C      MVNS     r0,r0
        0x08002800:    0680        ..      LSLS     r0,r0,#26
        0x08002802:    d4ec        ..      BMI      0x80027de ; I2C_WaitOnSTOPFlagUntilTimeout + 10
        0x08002804:    2000        .       MOVS     r0,#0
        0x08002806:    bd70        p.      POP      {r4-r6,pc}
        0x08002808:    f8540f44    T.D.    LDR      r0,[r4,#0x44]!
        0x0800280c:    f0400020    @. .    ORR      r0,r0,#0x20
        0x08002810:    f8440904    D...    STR      r0,[r4],#-4
        0x08002814:    2020                MOVS     r0,#0x20
        0x08002816:    7060        `p      STRB     r0,[r4,#1]
        0x08002818:    2000        .       MOVS     r0,#0
        0x0800281a:    70a0        .p      STRB     r0,[r4,#2]
        0x0800281c:    7020         p      STRB     r0,[r4,#0]
        0x0800281e:    e7e4        ..      B        0x80027ea ; I2C_WaitOnSTOPFlagUntilTimeout + 22
    i.I2C_WaitOnTXISFlagUntilTimeout
    I2C_WaitOnTXISFlagUntilTimeout
        0x08002820:    b570        p.      PUSH     {r4-r6,lr}
        0x08002822:    4616        .F      MOV      r6,r2
        0x08002824:    460d        .F      MOV      r5,r1
        0x08002826:    4604        .F      MOV      r4,r0
        0x08002828:    e00f        ..      B        0x800284a ; I2C_WaitOnTXISFlagUntilTimeout + 42
        0x0800282a:    4632        2F      MOV      r2,r6
        0x0800282c:    4629        )F      MOV      r1,r5
        0x0800282e:    4620         F      MOV      r0,r4
        0x08002830:    f7fffcca    ....    BL       I2C_IsAcknowledgeFailed ; 0x80021c8
        0x08002834:    b108        ..      CBZ      r0,0x800283a ; I2C_WaitOnTXISFlagUntilTimeout + 26
        0x08002836:    2001        .       MOVS     r0,#1
        0x08002838:    bd70        p.      POP      {r4-r6,pc}
        0x0800283a:    1c68        h.      ADDS     r0,r5,#1
        0x0800283c:    d005        ..      BEQ      0x800284a ; I2C_WaitOnTXISFlagUntilTimeout + 42
        0x0800283e:    f7fdffe9    ....    BL       HAL_GetTick ; 0x8000814
        0x08002842:    1b80        ..      SUBS     r0,r0,r6
        0x08002844:    42a8        .B      CMP      r0,r5
        0x08002846:    d807        ..      BHI      0x8002858 ; I2C_WaitOnTXISFlagUntilTimeout + 56
        0x08002848:    b135        5.      CBZ      r5,0x8002858 ; I2C_WaitOnTXISFlagUntilTimeout + 56
        0x0800284a:    6820         h      LDR      r0,[r4,#0]
        0x0800284c:    6980        .i      LDR      r0,[r0,#0x18]
        0x0800284e:    43c0        .C      MVNS     r0,r0
        0x08002850:    0780        ..      LSLS     r0,r0,#30
        0x08002852:    d4ea        ..      BMI      0x800282a ; I2C_WaitOnTXISFlagUntilTimeout + 10
        0x08002854:    2000        .       MOVS     r0,#0
        0x08002856:    bd70        p.      POP      {r4-r6,pc}
        0x08002858:    f8540f44    T.D.    LDR      r0,[r4,#0x44]!
        0x0800285c:    f0400020    @. .    ORR      r0,r0,#0x20
        0x08002860:    f8440904    D...    STR      r0,[r4],#-4
        0x08002864:    2020                MOVS     r0,#0x20
        0x08002866:    7060        `p      STRB     r0,[r4,#1]
        0x08002868:    2000        .       MOVS     r0,#0
        0x0800286a:    70a0        .p      STRB     r0,[r4,#2]
        0x0800286c:    7020         p      STRB     r0,[r4,#0]
        0x0800286e:    e7e2        ..      B        0x8002836 ; I2C_WaitOnTXISFlagUntilTimeout + 22
    i.LL_FLASH_OB_Unlock
    LL_FLASH_OB_Unlock
        0x08002870:    4805        .H      LDR      r0,[pc,#20] ; [0x8002888] = 0x40022000
        0x08002872:    6941        Ai      LDR      r1,[r0,#0x14]
        0x08002874:    0049        I.      LSLS     r1,r1,#1
        0x08002876:    d505        ..      BPL      0x8002884 ; LL_FLASH_OB_Unlock + 20
        0x08002878:    4904        .I      LDR      r1,[pc,#16] ; [0x800288c] = 0x8192a3b
        0x0800287a:    60c1        .`      STR      r1,[r0,#0xc]
        0x0800287c:    4904        .I      LDR      r1,[pc,#16] ; [0x8002890] = 0x4c5d6e7f
        0x0800287e:    60c1        .`      STR      r1,[r0,#0xc]
        0x08002880:    2000        .       MOVS     r0,#0
        0x08002882:    4770        pG      BX       lr
        0x08002884:    2001        .       MOVS     r0,#1
        0x08002886:    4770        pG      BX       lr
    $d
        0x08002888:    40022000    . .@    DCD    1073881088
        0x0800288c:    08192a3b    ;*..    DCD    135866939
        0x08002890:    4c5d6e7f    .n]L    DCD    1281191551
    $t
    i.LL_FLASH_PageErase
    LL_FLASH_PageErase
        0x08002894:    4602        .F      MOV      r2,r0
        0x08002896:    481c        .H      LDR      r0,[pc,#112] ; [0x8002908] = 0x40010000
        0x08002898:    b500        ..      PUSH     {lr}
        0x0800289a:    6800        .h      LDR      r0,[r0,#0]
        0x0800289c:    f4007380    ...s    AND      r3,r0,#0x100
        0x080028a0:    f000f85e    ..^.    BL       LL_Flash_Unlock ; 0x8002960
        0x080028a4:    4919        .I      LDR      r1,[pc,#100] ; [0x800290c] = 0x40022000
        0x080028a6:    6908        .i      LDR      r0,[r1,#0x10]
        0x080028a8:    f3c04000    ...@    UBFX     r0,r0,#16,#1
        0x080028ac:    2800        .(      CMP      r0,#0
        0x080028ae:    d1fa        ..      BNE      0x80028a6 ; LL_FLASH_PageErase + 18
        0x080028b0:    2ac8        .*      CMP      r2,#0xc8
        0x080028b2:    d926        &.      BLS      0x8002902 ; LL_FLASH_PageErase + 110
        0x080028b4:    6948        Hi      LDR      r0,[r1,#0x14]
        0x080028b6:    f0400002    @...    ORR      r0,r0,#2
        0x080028ba:    6148        Ha      STR      r0,[r1,#0x14]
        0x080028bc:    6948        Hi      LDR      r0,[r1,#0x14]
        0x080028be:    b1eb        ..      CBZ      r3,0x80028fc ; LL_FLASH_PageErase + 104
        0x080028c0:    f4406000    @..`    ORR      r0,r0,#0x800
        0x080028c4:    6148        Ha      STR      r0,[r1,#0x14]
        0x080028c6:    6948        Hi      LDR      r0,[r1,#0x14]
        0x080028c8:    ea4000c2    @...    ORR      r0,r0,r2,LSL #3
        0x080028cc:    6148        Ha      STR      r0,[r1,#0x14]
        0x080028ce:    6948        Hi      LDR      r0,[r1,#0x14]
        0x080028d0:    f4403080    @..0    ORR      r0,r0,#0x10000
        0x080028d4:    6148        Ha      STR      r0,[r1,#0x14]
        0x080028d6:    6908        .i      LDR      r0,[r1,#0x10]
        0x080028d8:    f3c04000    ...@    UBFX     r0,r0,#16,#1
        0x080028dc:    2800        .(      CMP      r0,#0
        0x080028de:    d1fa        ..      BNE      0x80028d6 ; LL_FLASH_PageErase + 66
        0x080028e0:    6948        Hi      LDR      r0,[r1,#0x14]
        0x080028e2:    f42060ff     ..`    BIC      r0,r0,#0x7f8
        0x080028e6:    6148        Ha      STR      r0,[r1,#0x14]
        0x080028e8:    6948        Hi      LDR      r0,[r1,#0x14]
        0x080028ea:    f0200002     ...    BIC      r0,r0,#2
        0x080028ee:    6148        Ha      STR      r0,[r1,#0x14]
        0x080028f0:    6948        Hi      LDR      r0,[r1,#0x14]
        0x080028f2:    f0404000    @..@    ORR      r0,r0,#0x80000000
        0x080028f6:    6148        Ha      STR      r0,[r1,#0x14]
        0x080028f8:    2000        .       MOVS     r0,#0
        0x080028fa:    bd00        ..      POP      {pc}
        0x080028fc:    f4206000     ..`    BIC      r0,r0,#0x800
        0x08002900:    e7e0        ..      B        0x80028c4 ; LL_FLASH_PageErase + 48
        0x08002902:    2001        .       MOVS     r0,#1
        0x08002904:    bd00        ..      POP      {pc}
    $d
        0x08002906:    0000        ..      DCW    0
        0x08002908:    40010000    ...@    DCD    1073807360
        0x0800290c:    40022000    . .@    DCD    1073881088
    $t
    i.LL_FLASH_Program64
    LL_FLASH_Program64
        0x08002910:    b510        ..      PUSH     {r4,lr}
        0x08002912:    460b        .F      MOV      r3,r1
        0x08002914:    4604        .F      MOV      r4,r0
        0x08002916:    f000f823    ..#.    BL       LL_Flash_Unlock ; 0x8002960
        0x0800291a:    4a10        .J      LDR      r2,[pc,#64] ; [0x800295c] = 0x40022000
        0x0800291c:    6910        .i      LDR      r0,[r2,#0x10]
        0x0800291e:    f3c04000    ...@    UBFX     r0,r0,#16,#1
        0x08002922:    2800        .(      CMP      r0,#0
        0x08002924:    d1fa        ..      BNE      0x800291c ; LL_FLASH_Program64 + 12
        0x08002926:    6950        Pi      LDR      r0,[r2,#0x14]
        0x08002928:    f0400001    @...    ORR      r0,r0,#1
        0x0800292c:    6150        Pa      STR      r0,[r2,#0x14]
        0x0800292e:    6818        .h      LDR      r0,[r3,#0]
        0x08002930:    6020         `      STR      r0,[r4,#0]
        0x08002932:    6858        Xh      LDR      r0,[r3,#4]
        0x08002934:    6060        ``      STR      r0,[r4,#4]
        0x08002936:    2001        .       MOVS     r0,#1
        0x08002938:    6911        .i      LDR      r1,[r2,#0x10]
        0x0800293a:    f3c14100    ...A    UBFX     r1,r1,#16,#1
        0x0800293e:    2900        .)      CMP      r1,#0
        0x08002940:    d1fa        ..      BNE      0x8002938 ; LL_FLASH_Program64 + 40
        0x08002942:    6951        Qi      LDR      r1,[r2,#0x14]
        0x08002944:    4381        .C      BICS     r1,r1,r0
        0x08002946:    6151        Qa      STR      r1,[r2,#0x14]
        0x08002948:    6950        Pi      LDR      r0,[r2,#0x14]
        0x0800294a:    f0200001     ...    BIC      r0,r0,#1
        0x0800294e:    6150        Pa      STR      r0,[r2,#0x14]
        0x08002950:    6950        Pi      LDR      r0,[r2,#0x14]
        0x08002952:    f0404000    @..@    ORR      r0,r0,#0x80000000
        0x08002956:    6150        Pa      STR      r0,[r2,#0x14]
        0x08002958:    2000        .       MOVS     r0,#0
        0x0800295a:    bd10        ..      POP      {r4,pc}
    $d
        0x0800295c:    40022000    . .@    DCD    1073881088
    $t
    i.LL_Flash_Unlock
    LL_Flash_Unlock
        0x08002960:    4807        .H      LDR      r0,[pc,#28] ; [0x8002980] = 0x40022000
        0x08002962:    6901        .i      LDR      r1,[r0,#0x10]
        0x08002964:    f3c14100    ...A    UBFX     r1,r1,#16,#1
        0x08002968:    2900        .)      CMP      r1,#0
        0x0800296a:    d1fa        ..      BNE      0x8002962 ; LL_Flash_Unlock + 2
        0x0800296c:    6941        Ai      LDR      r1,[r0,#0x14]
        0x0800296e:    f0114f00    ...O    TST      r1,#0x80000000
        0x08002972:    d003        ..      BEQ      0x800297c ; LL_Flash_Unlock + 28
        0x08002974:    4903        .I      LDR      r1,[pc,#12] ; [0x8002984] = 0x45670123
        0x08002976:    6081        .`      STR      r1,[r0,#8]
        0x08002978:    4903        .I      LDR      r1,[pc,#12] ; [0x8002988] = 0xcdef89ab
        0x0800297a:    6081        .`      STR      r1,[r0,#8]
        0x0800297c:    2000        .       MOVS     r0,#0
        0x0800297e:    4770        pG      BX       lr
    $d
        0x08002980:    40022000    . .@    DCD    1073881088
        0x08002984:    45670123    #.gE    DCD    1164378403
        0x08002988:    cdef89ab    ....    DCD    3455027627
    $t
    i.MX_I2C2_Init
    MX_I2C2_Init
        0x0800298c:    4811        .H      LDR      r0,[pc,#68] ; [0x80029d4] = 0x200000fc
        0x0800298e:    b510        ..      PUSH     {r4,lr}
        0x08002990:    490f        .I      LDR      r1,[pc,#60] ; [0x80029d0] = 0x40005800
        0x08002992:    6001        .`      STR      r1,[r0,#0]
        0x08002994:    4910        .I      LDR      r1,[pc,#64] ; [0x80029d8] = 0x10d19ce4
        0x08002996:    6041        A`      STR      r1,[r0,#4]
        0x08002998:    2100        .!      MOVS     r1,#0
        0x0800299a:    2201        ."      MOVS     r2,#1
        0x0800299c:    e9c01202    ....    STRD     r1,r2,[r0,#8]
        0x080029a0:    6101        .a      STR      r1,[r0,#0x10]
        0x080029a2:    6141        Aa      STR      r1,[r0,#0x14]
        0x080029a4:    6181        .a      STR      r1,[r0,#0x18]
        0x080029a6:    61c1        .a      STR      r1,[r0,#0x1c]
        0x080029a8:    6201        .b      STR      r1,[r0,#0x20]
        0x080029aa:    f7fdffcd    ....    BL       HAL_I2C_Init ; 0x8000948
        0x080029ae:    b100        ..      CBZ      r0,0x80029b2 ; MX_I2C2_Init + 38
        0x080029b0:    e7fe        ..      B        0x80029b0 ; MX_I2C2_Init + 36
        0x080029b2:    2100        .!      MOVS     r1,#0
        0x080029b4:    4807        .H      LDR      r0,[pc,#28] ; [0x80029d4] = 0x200000fc
        0x080029b6:    f7fdff33    ..3.    BL       HAL_I2CEx_ConfigAnalogFilter ; 0x8000820
        0x080029ba:    b100        ..      CBZ      r0,0x80029be ; MX_I2C2_Init + 50
        0x080029bc:    e7fe        ..      B        0x80029bc ; MX_I2C2_Init + 48
        0x080029be:    2100        .!      MOVS     r1,#0
        0x080029c0:    4804        .H      LDR      r0,[pc,#16] ; [0x80029d4] = 0x200000fc
        0x080029c2:    f7fdff58    ..X.    BL       HAL_I2CEx_ConfigDigitalFilter ; 0x8000876
        0x080029c6:    2800        .(      CMP      r0,#0
        0x080029c8:    d000        ..      BEQ      0x80029cc ; MX_I2C2_Init + 64
        0x080029ca:    e7fe        ..      B        0x80029ca ; MX_I2C2_Init + 62
        0x080029cc:    bd10        ..      POP      {r4,pc}
    $d
        0x080029ce:    0000        ..      DCW    0
        0x080029d0:    40005800    .X.@    DCD    1073764352
        0x080029d4:    200000fc    ...     DCD    536871164
        0x080029d8:    10d19ce4    ....    DCD    282172644
    $t
    i.MX_TIM2_Init
    MX_TIM2_Init
        0x080029dc:    b510        ..      PUSH     {r4,lr}
        0x080029de:    b088        ..      SUB      sp,sp,#0x20
        0x080029e0:    2400        .$      MOVS     r4,#0
        0x080029e2:    4811        .H      LDR      r0,[pc,#68] ; [0x8002a28] = 0x2000003c
        0x080029e4:    9400        ..      STR      r4,[sp,#0]
        0x080029e6:    9401        ..      STR      r4,[sp,#4]
        0x080029e8:    9402        ..      STR      r4,[sp,#8]
        0x080029ea:    9403        ..      STR      r4,[sp,#0xc]
        0x080029ec:    9404        ..      STR      r4,[sp,#0x10]
        0x080029ee:    9405        ..      STR      r4,[sp,#0x14]
        0x080029f0:    f04f4180    O..A    MOV      r1,#0x40000000
        0x080029f4:    9406        ..      STR      r4,[sp,#0x18]
        0x080029f6:    6001        .`      STR      r1,[r0,#0]
        0x080029f8:    2104        .!      MOVS     r1,#4
        0x080029fa:    e9c01401    ....    STRD     r1,r4,[r0,#4]
        0x080029fe:    1f49        I.      SUBS     r1,r1,#5
        0x08002a00:    e9c01403    ....    STRD     r1,r4,[r0,#0xc]
        0x08002a04:    6184        .a      STR      r4,[r0,#0x18]
        0x08002a06:    f7fefff5    ....    BL       HAL_TIM_Base_Init ; 0x80019f4
        0x08002a0a:    f44f5080    O..P    MOV      r0,#0x1000
        0x08002a0e:    9000        ..      STR      r0,[sp,#0]
        0x08002a10:    4669        iF      MOV      r1,sp
        0x08002a12:    4805        .H      LDR      r0,[pc,#20] ; [0x8002a28] = 0x2000003c
        0x08002a14:    f7fff826    ..&.    BL       HAL_TIM_ConfigClockSource ; 0x8001a64
        0x08002a18:    9404        ..      STR      r4,[sp,#0x10]
        0x08002a1a:    a904        ..      ADD      r1,sp,#0x10
        0x08002a1c:    4802        .H      LDR      r0,[pc,#8] ; [0x8002a28] = 0x2000003c
        0x08002a1e:    9406        ..      STR      r4,[sp,#0x18]
        0x08002a20:    f7feffb8    ....    BL       HAL_TIMEx_MasterConfigSynchronization ; 0x8001994
        0x08002a24:    b008        ..      ADD      sp,sp,#0x20
        0x08002a26:    bd10        ..      POP      {r4,pc}
    $d
        0x08002a28:    2000003c    <..     DCD    536870972
    $t
    i.MX_USART2_UART_Init
    MX_USART2_UART_Init
        0x08002a2c:    4809        .H      LDR      r0,[pc,#36] ; [0x8002a54] = 0x2000007c
        0x08002a2e:    4908        .I      LDR      r1,[pc,#32] ; [0x8002a50] = 0x40004400
        0x08002a30:    6001        .`      STR      r1,[r0,#0]
        0x08002a32:    f44f31e1    O..1    MOV      r1,#0x1c200
        0x08002a36:    6041        A`      STR      r1,[r0,#4]
        0x08002a38:    2100        .!      MOVS     r1,#0
        0x08002a3a:    6081        .`      STR      r1,[r0,#8]
        0x08002a3c:    220c        ."      MOVS     r2,#0xc
        0x08002a3e:    60c1        .`      STR      r1,[r0,#0xc]
        0x08002a40:    e9c01204    ....    STRD     r1,r2,[r0,#0x10]
        0x08002a44:    6181        .a      STR      r1,[r0,#0x18]
        0x08002a46:    61c1        .a      STR      r1,[r0,#0x1c]
        0x08002a48:    6201        .b      STR      r1,[r0,#0x20]
        0x08002a4a:    6241        Ab      STR      r1,[r0,#0x24]
        0x08002a4c:    f7ffb8c6    ....    B        HAL_UART_Init ; 0x8001bdc
    $d
        0x08002a50:    40004400    .D.@    DCD    1073759232
        0x08002a54:    2000007c    |..     DCD    536871036
    $t
    i.RCCEx_PLLSAI1_Config
    RCCEx_PLLSAI1_Config
        0x08002a58:    e92d41f0    -..A    PUSH     {r4-r8,lr}
        0x08002a5c:    4c44        DL      LDR      r4,[pc,#272] ; [0x8002b70] = 0x40021000
        0x08002a5e:    4605        .F      MOV      r5,r0
        0x08002a60:    4688        .F      MOV      r8,r1
        0x08002a62:    68e0        .h      LDR      r0,[r4,#0xc]
        0x08002a64:    2600        .&      MOVS     r6,#0
        0x08002a66:    0781        ..      LSLS     r1,r0,#30
        0x08002a68:    6828        (h      LDR      r0,[r5,#0]
        0x08002a6a:    d00d        ..      BEQ      0x8002a88 ; RCCEx_PLLSAI1_Config + 48
        0x08002a6c:    68e1        .h      LDR      r1,[r4,#0xc]
        0x08002a6e:    f0010103    ....    AND      r1,r1,#3
        0x08002a72:    4281        .B      CMP      r1,r0
        0x08002a74:    d116        ..      BNE      0x8002aa4 ; RCCEx_PLLSAI1_Config + 76
        0x08002a76:    b1a8        ..      CBZ      r0,0x8002aa4 ; RCCEx_PLLSAI1_Config + 76
        0x08002a78:    68e0        .h      LDR      r0,[r4,#0xc]
        0x08002a7a:    6869        ih      LDR      r1,[r5,#4]
        0x08002a7c:    f3c01002    ....    UBFX     r0,r0,#4,#3
        0x08002a80:    1c40        @.      ADDS     r0,r0,#1
        0x08002a82:    4288        .B      CMP      r0,r1
        0x08002a84:    d10e        ..      BNE      0x8002aa4 ; RCCEx_PLLSAI1_Config + 76
        0x08002a86:    e020         .      B        0x8002aca ; RCCEx_PLLSAI1_Config + 114
        0x08002a88:    2801        .(      CMP      r0,#1
        0x08002a8a:    d004        ..      BEQ      0x8002a96 ; RCCEx_PLLSAI1_Config + 62
        0x08002a8c:    2802        .(      CMP      r0,#2
        0x08002a8e:    d005        ..      BEQ      0x8002a9c ; RCCEx_PLLSAI1_Config + 68
        0x08002a90:    2803        .(      CMP      r0,#3
        0x08002a92:    d107        ..      BNE      0x8002aa4 ; RCCEx_PLLSAI1_Config + 76
        0x08002a94:    e008        ..      B        0x8002aa8 ; RCCEx_PLLSAI1_Config + 80
        0x08002a96:    6821        !h      LDR      r1,[r4,#0]
        0x08002a98:    0789        ..      LSLS     r1,r1,#30
        0x08002a9a:    e001        ..      B        0x8002aa0 ; RCCEx_PLLSAI1_Config + 72
        0x08002a9c:    6821        !h      LDR      r1,[r4,#0]
        0x08002a9e:    0549        I.      LSLS     r1,r1,#21
        0x08002aa0:    2900        .)      CMP      r1,#0
        0x08002aa2:    db07        ..      BLT      0x8002ab4 ; RCCEx_PLLSAI1_Config + 92
        0x08002aa4:    2601        .&      MOVS     r6,#1
        0x08002aa6:    e05f        _.      B        0x8002b68 ; RCCEx_PLLSAI1_Config + 272
        0x08002aa8:    6821        !h      LDR      r1,[r4,#0]
        0x08002aaa:    0389        ..      LSLS     r1,r1,#14
        0x08002aac:    d402        ..      BMI      0x8002ab4 ; RCCEx_PLLSAI1_Config + 92
        0x08002aae:    6821        !h      LDR      r1,[r4,#0]
        0x08002ab0:    0349        I.      LSLS     r1,r1,#13
        0x08002ab2:    e7f5        ..      B        0x8002aa0 ; RCCEx_PLLSAI1_Config + 72
        0x08002ab4:    68e1        .h      LDR      r1,[r4,#0xc]
        0x08002ab6:    686a        jh      LDR      r2,[r5,#4]
        0x08002ab8:    f06f030f    o...    MVN      r3,#0xf
        0x08002abc:    f0210173    !.s.    BIC      r1,r1,#0x73
        0x08002ac0:    eb031202    ....    ADD      r2,r3,r2,LSL #4
        0x08002ac4:    4311        .C      ORRS     r1,r1,r2
        0x08002ac6:    4301        .C      ORRS     r1,r1,r0
        0x08002ac8:    60e1        .`      STR      r1,[r4,#0xc]
        0x08002aca:    6820         h      LDR      r0,[r4,#0]
        0x08002acc:    f0206080     ..`    BIC      r0,r0,#0x4000000
        0x08002ad0:    6020         `      STR      r0,[r4,#0]
        0x08002ad2:    f7fdfe9f    ....    BL       HAL_GetTick ; 0x8000814
        0x08002ad6:    4607        .F      MOV      r7,r0
        0x08002ad8:    e005        ..      B        0x8002ae6 ; RCCEx_PLLSAI1_Config + 142
        0x08002ada:    bf00        ..      NOP      
        0x08002adc:    f7fdfe9a    ....    BL       HAL_GetTick ; 0x8000814
        0x08002ae0:    1bc0        ..      SUBS     r0,r0,r7
        0x08002ae2:    2802        .(      CMP      r0,#2
        0x08002ae4:    d837        7.      BHI      0x8002b56 ; RCCEx_PLLSAI1_Config + 254
        0x08002ae6:    6820         h      LDR      r0,[r4,#0]
        0x08002ae8:    0100        ..      LSLS     r0,r0,#4
        0x08002aea:    d4f7        ..      BMI      0x8002adc ; RCCEx_PLLSAI1_Config + 132
        0x08002aec:    f1b80f00    ....    CMP      r8,#0
        0x08002af0:    d018        ..      BEQ      0x8002b24 ; RCCEx_PLLSAI1_Config + 204
        0x08002af2:    f1b80f01    ....    CMP      r8,#1
        0x08002af6:    d01e        ..      BEQ      0x8002b36 ; RCCEx_PLLSAI1_Config + 222
        0x08002af8:    7d28        (}      LDRB     r0,[r5,#0x14]
        0x08002afa:    f04f417e    O.~A    MOV      r1,#0xfe000000
        0x08002afe:    0840        @.      LSRS     r0,r0,#1
        0x08002b00:    eb016040    ..@`    ADD      r0,r1,r0,LSL #25
        0x08002b04:    68a9        .h      LDR      r1,[r5,#8]
        0x08002b06:    ea402001    @..     ORR      r0,r0,r1,LSL #8
        0x08002b0a:    6921        !i      LDR      r1,[r4,#0x10]
        0x08002b0c:    4a19        .J      LDR      r2,[pc,#100] ; [0x8002b74] = 0xf9ff80ff
        0x08002b0e:    4011        .@      ANDS     r1,r1,r2
        0x08002b10:    4308        .C      ORRS     r0,r0,r1
        0x08002b12:    6120         a      STR      r0,[r4,#0x10]
        0x08002b14:    6820         h      LDR      r0,[r4,#0]
        0x08002b16:    f0406080    @..`    ORR      r0,r0,#0x4000000
        0x08002b1a:    6020         `      STR      r0,[r4,#0]
        0x08002b1c:    f7fdfe7a    ..z.    BL       HAL_GetTick ; 0x8000814
        0x08002b20:    4607        .F      MOV      r7,r0
        0x08002b22:    e01a        ..      B        0x8002b5a ; RCCEx_PLLSAI1_Config + 258
        0x08002b24:    68a8        .h      LDR      r0,[r5,#8]
        0x08002b26:    68e9        .h      LDR      r1,[r5,#0xc]
        0x08002b28:    0200        ..      LSLS     r0,r0,#8
        0x08002b2a:    0909        ..      LSRS     r1,r1,#4
        0x08002b2c:    ea404041    @.A@    ORR      r0,r0,r1,LSL #17
        0x08002b30:    6921        !i      LDR      r1,[r4,#0x10]
        0x08002b32:    4a11        .J      LDR      r2,[pc,#68] ; [0x8002b78] = 0xfffd80ff
        0x08002b34:    e7eb        ..      B        0x8002b0e ; RCCEx_PLLSAI1_Config + 182
        0x08002b36:    8a28        (.      LDRH     r0,[r5,#0x10]
        0x08002b38:    4910        .I      LDR      r1,[pc,#64] ; [0x8002b7c] = 0xffe00000
        0x08002b3a:    0840        @.      LSRS     r0,r0,#1
        0x08002b3c:    eb015040    ..@P    ADD      r0,r1,r0,LSL #21
        0x08002b40:    68a9        .h      LDR      r1,[r5,#8]
        0x08002b42:    ea402001    @..     ORR      r0,r0,r1,LSL #8
        0x08002b46:    6921        !i      LDR      r1,[r4,#0x10]
        0x08002b48:    4a0d        .J      LDR      r2,[pc,#52] ; [0x8002b80] = 0xff9f80ff
        0x08002b4a:    e7e0        ..      B        0x8002b0e ; RCCEx_PLLSAI1_Config + 182
        0x08002b4c:    f7fdfe62    ..b.    BL       HAL_GetTick ; 0x8000814
        0x08002b50:    1bc0        ..      SUBS     r0,r0,r7
        0x08002b52:    2802        .(      CMP      r0,#2
        0x08002b54:    d901        ..      BLS      0x8002b5a ; RCCEx_PLLSAI1_Config + 258
        0x08002b56:    2603        .&      MOVS     r6,#3
        0x08002b58:    e006        ..      B        0x8002b68 ; RCCEx_PLLSAI1_Config + 272
        0x08002b5a:    6820         h      LDR      r0,[r4,#0]
        0x08002b5c:    0100        ..      LSLS     r0,r0,#4
        0x08002b5e:    d5f5        ..      BPL      0x8002b4c ; RCCEx_PLLSAI1_Config + 244
        0x08002b60:    6920         i      LDR      r0,[r4,#0x10]
        0x08002b62:    69a9        .i      LDR      r1,[r5,#0x18]
        0x08002b64:    4308        .C      ORRS     r0,r0,r1
        0x08002b66:    6120         a      STR      r0,[r4,#0x10]
        0x08002b68:    4630        0F      MOV      r0,r6
        0x08002b6a:    e8bd81f0    ....    POP      {r4-r8,pc}
    $d
        0x08002b6e:    0000        ..      DCW    0
        0x08002b70:    40021000    ...@    DCD    1073876992
        0x08002b74:    f9ff80ff    ....    DCD    4194271487
        0x08002b78:    fffd80ff    ....    DCD    4294803711
        0x08002b7c:    ffe00000    ....    DCD    4292870144
        0x08002b80:    ff9f80ff    ....    DCD    4288643327
    $t
    i.RCCEx_PLLSAI2_Config
    RCCEx_PLLSAI2_Config
        0x08002b84:    e92d41f0    -..A    PUSH     {r4-r8,lr}
        0x08002b88:    4c3d        =L      LDR      r4,[pc,#244] ; [0x8002c80] = 0x40021000
        0x08002b8a:    4606        .F      MOV      r6,r0
        0x08002b8c:    4688        .F      MOV      r8,r1
        0x08002b8e:    68e0        .h      LDR      r0,[r4,#0xc]
        0x08002b90:    2500        .%      MOVS     r5,#0
        0x08002b92:    0781        ..      LSLS     r1,r0,#30
        0x08002b94:    6830        0h      LDR      r0,[r6,#0]
        0x08002b96:    d00d        ..      BEQ      0x8002bb4 ; RCCEx_PLLSAI2_Config + 48
        0x08002b98:    68e1        .h      LDR      r1,[r4,#0xc]
        0x08002b9a:    f0010103    ....    AND      r1,r1,#3
        0x08002b9e:    4281        .B      CMP      r1,r0
        0x08002ba0:    d116        ..      BNE      0x8002bd0 ; RCCEx_PLLSAI2_Config + 76
        0x08002ba2:    b1a8        ..      CBZ      r0,0x8002bd0 ; RCCEx_PLLSAI2_Config + 76
        0x08002ba4:    68e0        .h      LDR      r0,[r4,#0xc]
        0x08002ba6:    6871        qh      LDR      r1,[r6,#4]
        0x08002ba8:    f3c01002    ....    UBFX     r0,r0,#4,#3
        0x08002bac:    1c40        @.      ADDS     r0,r0,#1
        0x08002bae:    4288        .B      CMP      r0,r1
        0x08002bb0:    d10e        ..      BNE      0x8002bd0 ; RCCEx_PLLSAI2_Config + 76
        0x08002bb2:    e020         .      B        0x8002bf6 ; RCCEx_PLLSAI2_Config + 114
        0x08002bb4:    2801        .(      CMP      r0,#1
        0x08002bb6:    d004        ..      BEQ      0x8002bc2 ; RCCEx_PLLSAI2_Config + 62
        0x08002bb8:    2802        .(      CMP      r0,#2
        0x08002bba:    d005        ..      BEQ      0x8002bc8 ; RCCEx_PLLSAI2_Config + 68
        0x08002bbc:    2803        .(      CMP      r0,#3
        0x08002bbe:    d107        ..      BNE      0x8002bd0 ; RCCEx_PLLSAI2_Config + 76
        0x08002bc0:    e008        ..      B        0x8002bd4 ; RCCEx_PLLSAI2_Config + 80
        0x08002bc2:    6821        !h      LDR      r1,[r4,#0]
        0x08002bc4:    0789        ..      LSLS     r1,r1,#30
        0x08002bc6:    e001        ..      B        0x8002bcc ; RCCEx_PLLSAI2_Config + 72
        0x08002bc8:    6821        !h      LDR      r1,[r4,#0]
        0x08002bca:    0549        I.      LSLS     r1,r1,#21
        0x08002bcc:    2900        .)      CMP      r1,#0
        0x08002bce:    db07        ..      BLT      0x8002be0 ; RCCEx_PLLSAI2_Config + 92
        0x08002bd0:    2501        .%      MOVS     r5,#1
        0x08002bd2:    e051        Q.      B        0x8002c78 ; RCCEx_PLLSAI2_Config + 244
        0x08002bd4:    6821        !h      LDR      r1,[r4,#0]
        0x08002bd6:    0389        ..      LSLS     r1,r1,#14
        0x08002bd8:    d402        ..      BMI      0x8002be0 ; RCCEx_PLLSAI2_Config + 92
        0x08002bda:    6821        !h      LDR      r1,[r4,#0]
        0x08002bdc:    0349        I.      LSLS     r1,r1,#13
        0x08002bde:    e7f5        ..      B        0x8002bcc ; RCCEx_PLLSAI2_Config + 72
        0x08002be0:    68e1        .h      LDR      r1,[r4,#0xc]
        0x08002be2:    6872        rh      LDR      r2,[r6,#4]
        0x08002be4:    f06f030f    o...    MVN      r3,#0xf
        0x08002be8:    f0210173    !.s.    BIC      r1,r1,#0x73
        0x08002bec:    eb031202    ....    ADD      r2,r3,r2,LSL #4
        0x08002bf0:    4311        .C      ORRS     r1,r1,r2
        0x08002bf2:    4301        .C      ORRS     r1,r1,r0
        0x08002bf4:    60e1        .`      STR      r1,[r4,#0xc]
        0x08002bf6:    6820         h      LDR      r0,[r4,#0]
        0x08002bf8:    f0205080     ..P    BIC      r0,r0,#0x10000000
        0x08002bfc:    6020         `      STR      r0,[r4,#0]
        0x08002bfe:    f7fdfe09    ....    BL       HAL_GetTick ; 0x8000814
        0x08002c02:    4607        .F      MOV      r7,r0
        0x08002c04:    e005        ..      B        0x8002c12 ; RCCEx_PLLSAI2_Config + 142
        0x08002c06:    bf00        ..      NOP      
        0x08002c08:    f7fdfe04    ....    BL       HAL_GetTick ; 0x8000814
        0x08002c0c:    1bc0        ..      SUBS     r0,r0,r7
        0x08002c0e:    2802        .(      CMP      r0,#2
        0x08002c10:    d829        ).      BHI      0x8002c66 ; RCCEx_PLLSAI2_Config + 226
        0x08002c12:    6820         h      LDR      r0,[r4,#0]
        0x08002c14:    0080        ..      LSLS     r0,r0,#2
        0x08002c16:    d4f7        ..      BMI      0x8002c08 ; RCCEx_PLLSAI2_Config + 132
        0x08002c18:    f1b80f00    ....    CMP      r8,#0
        0x08002c1c:    d015        ..      BEQ      0x8002c4a ; RCCEx_PLLSAI2_Config + 198
        0x08002c1e:    7c30        0|      LDRB     r0,[r6,#0x10]
        0x08002c20:    f04f417e    O.~A    MOV      r1,#0xfe000000
        0x08002c24:    0840        @.      LSRS     r0,r0,#1
        0x08002c26:    eb016040    ..@`    ADD      r0,r1,r0,LSL #25
        0x08002c2a:    68b1        .h      LDR      r1,[r6,#8]
        0x08002c2c:    ea402001    @..     ORR      r0,r0,r1,LSL #8
        0x08002c30:    6961        ai      LDR      r1,[r4,#0x14]
        0x08002c32:    4a14        .J      LDR      r2,[pc,#80] ; [0x8002c84] = 0xf9ff80ff
        0x08002c34:    4011        .@      ANDS     r1,r1,r2
        0x08002c36:    4308        .C      ORRS     r0,r0,r1
        0x08002c38:    6160        `a      STR      r0,[r4,#0x14]
        0x08002c3a:    6820         h      LDR      r0,[r4,#0]
        0x08002c3c:    f0405080    @..P    ORR      r0,r0,#0x10000000
        0x08002c40:    6020         `      STR      r0,[r4,#0]
        0x08002c42:    f7fdfde7    ....    BL       HAL_GetTick ; 0x8000814
        0x08002c46:    4607        .F      MOV      r7,r0
        0x08002c48:    e00f        ..      B        0x8002c6a ; RCCEx_PLLSAI2_Config + 230
        0x08002c4a:    68b0        .h      LDR      r0,[r6,#8]
        0x08002c4c:    68f1        .h      LDR      r1,[r6,#0xc]
        0x08002c4e:    0200        ..      LSLS     r0,r0,#8
        0x08002c50:    0909        ..      LSRS     r1,r1,#4
        0x08002c52:    ea404041    @.A@    ORR      r0,r0,r1,LSL #17
        0x08002c56:    6961        ai      LDR      r1,[r4,#0x14]
        0x08002c58:    4a0b        .J      LDR      r2,[pc,#44] ; [0x8002c88] = 0xfffd80ff
        0x08002c5a:    e7eb        ..      B        0x8002c34 ; RCCEx_PLLSAI2_Config + 176
        0x08002c5c:    f7fdfdda    ....    BL       HAL_GetTick ; 0x8000814
        0x08002c60:    1bc0        ..      SUBS     r0,r0,r7
        0x08002c62:    2802        .(      CMP      r0,#2
        0x08002c64:    d901        ..      BLS      0x8002c6a ; RCCEx_PLLSAI2_Config + 230
        0x08002c66:    2503        .%      MOVS     r5,#3
        0x08002c68:    e006        ..      B        0x8002c78 ; RCCEx_PLLSAI2_Config + 244
        0x08002c6a:    6820         h      LDR      r0,[r4,#0]
        0x08002c6c:    0080        ..      LSLS     r0,r0,#2
        0x08002c6e:    d5f5        ..      BPL      0x8002c5c ; RCCEx_PLLSAI2_Config + 216
        0x08002c70:    6960        `i      LDR      r0,[r4,#0x14]
        0x08002c72:    6971        qi      LDR      r1,[r6,#0x14]
        0x08002c74:    4308        .C      ORRS     r0,r0,r1
        0x08002c76:    6160        `a      STR      r0,[r4,#0x14]
        0x08002c78:    4628        (F      MOV      r0,r5
        0x08002c7a:    e8bd81f0    ....    POP      {r4-r8,pc}
    $d
        0x08002c7e:    0000        ..      DCW    0
        0x08002c80:    40021000    ...@    DCD    1073876992
        0x08002c84:    f9ff80ff    ....    DCD    4194271487
        0x08002c88:    fffd80ff    ....    DCD    4294803711
    $t
    i.RCC_SetFlashLatencyFromMSIRange
    RCC_SetFlashLatencyFromMSIRange
        0x08002c8c:    b5f8        ..      PUSH     {r3-r7,lr}
        0x08002c8e:    4d1c        .M      LDR      r5,[pc,#112] ; [0x8002d00] = 0x40021000
        0x08002c90:    4606        .F      MOV      r6,r0
        0x08002c92:    2400        .$      MOVS     r4,#0
        0x08002c94:    6da8        .m      LDR      r0,[r5,#0x58]
        0x08002c96:    00c0        ..      LSLS     r0,r0,#3
        0x08002c98:    d502        ..      BPL      0x8002ca0 ; RCC_SetFlashLatencyFromMSIRange + 20
        0x08002c9a:    f7fef911    ....    BL       HAL_PWREx_GetVoltageRange ; 0x8000ec0
        0x08002c9e:    e00d        ..      B        0x8002cbc ; RCC_SetFlashLatencyFromMSIRange + 48
        0x08002ca0:    6da8        .m      LDR      r0,[r5,#0x58]
        0x08002ca2:    f0405080    @..P    ORR      r0,r0,#0x10000000
        0x08002ca6:    65a8        .e      STR      r0,[r5,#0x58]
        0x08002ca8:    6da8        .m      LDR      r0,[r5,#0x58]
        0x08002caa:    f0005080    ...P    AND      r0,r0,#0x10000000
        0x08002cae:    9000        ..      STR      r0,[sp,#0]
        0x08002cb0:    f7fef906    ....    BL       HAL_PWREx_GetVoltageRange ; 0x8000ec0
        0x08002cb4:    6da9        .m      LDR      r1,[r5,#0x58]
        0x08002cb6:    f0215180    !..Q    BIC      r1,r1,#0x10000000
        0x08002cba:    65a9        .e      STR      r1,[r5,#0x58]
        0x08002cbc:    f5b07f00    ....    CMP      r0,#0x200
        0x08002cc0:    d004        ..      BEQ      0x8002ccc ; RCC_SetFlashLatencyFromMSIRange + 64
        0x08002cc2:    2e80        ..      CMP      r6,#0x80
        0x08002cc4:    d907        ..      BLS      0x8002cd6 ; RCC_SetFlashLatencyFromMSIRange + 74
        0x08002cc6:    f04f0403    O...    MOV      r4,#3
        0x08002cca:    e00a        ..      B        0x8002ce2 ; RCC_SetFlashLatencyFromMSIRange + 86
        0x08002ccc:    2e80        ..      CMP      r6,#0x80
        0x08002cce:    d908        ..      BLS      0x8002ce2 ; RCC_SetFlashLatencyFromMSIRange + 86
        0x08002cd0:    2ea0        ..      CMP      r6,#0xa0
        0x08002cd2:    d801        ..      BHI      0x8002cd8 ; RCC_SetFlashLatencyFromMSIRange + 76
        0x08002cd4:    e004        ..      B        0x8002ce0 ; RCC_SetFlashLatencyFromMSIRange + 84
        0x08002cd6:    d101        ..      BNE      0x8002cdc ; RCC_SetFlashLatencyFromMSIRange + 80
        0x08002cd8:    2402        .$      MOVS     r4,#2
        0x08002cda:    e002        ..      B        0x8002ce2 ; RCC_SetFlashLatencyFromMSIRange + 86
        0x08002cdc:    2e70        p.      CMP      r6,#0x70
        0x08002cde:    d100        ..      BNE      0x8002ce2 ; RCC_SetFlashLatencyFromMSIRange + 86
        0x08002ce0:    2401        .$      MOVS     r4,#1
        0x08002ce2:    4808        .H      LDR      r0,[pc,#32] ; [0x8002d04] = 0x40022000
        0x08002ce4:    6801        .h      LDR      r1,[r0,#0]
        0x08002ce6:    f0210107    !...    BIC      r1,r1,#7
        0x08002cea:    4321        !C      ORRS     r1,r1,r4
        0x08002cec:    6001        .`      STR      r1,[r0,#0]
        0x08002cee:    6800        .h      LDR      r0,[r0,#0]
        0x08002cf0:    f0000007    ....    AND      r0,r0,#7
        0x08002cf4:    42a0        .B      CMP      r0,r4
        0x08002cf6:    d001        ..      BEQ      0x8002cfc ; RCC_SetFlashLatencyFromMSIRange + 112
        0x08002cf8:    2001        .       MOVS     r0,#1
        0x08002cfa:    bdf8        ..      POP      {r3-r7,pc}
        0x08002cfc:    2000        .       MOVS     r0,#0
        0x08002cfe:    bdf8        ..      POP      {r3-r7,pc}
    $d
        0x08002d00:    40021000    ...@    DCD    1073876992
        0x08002d04:    40022000    . .@    DCD    1073881088
    $t
    i.Reset_Handler
    Reset_Handler
        0x08002d08:    b510        ..      PUSH     {r4,lr}
        0x08002d0a:    f000f883    ....    BL       SystemInit ; 0x8002e14
        0x08002d0e:    f7fdfc11    ....    BL       TOGGLE_RESET_EXTI_CALLBACK ; 0x8000534
        0x08002d12:    2800        .(      CMP      r0,#0
        0x08002d14:    d103        ..      BNE      0x8002d1e ; Reset_Handler + 22
        0x08002d16:    e8bd4010    ...@    POP      {r4,lr}
        0x08002d1a:    f7fdba3f    ..?.    B        INTO_MAIN ; 0x800019c
        0x08002d1e:    bd10        ..      POP      {r4,pc}
    i.STMFLASH_BankSwitch
    STMFLASH_BankSwitch
        0x08002d20:    4a1c        .J      LDR      r2,[pc,#112] ; [0x8002d94] = 0x40022000
        0x08002d22:    b500        ..      PUSH     {lr}
        0x08002d24:    6950        Pi      LDR      r0,[r2,#0x14]
        0x08002d26:    f0404000    @..@    ORR      r0,r0,#0x80000000
        0x08002d2a:    6150        Pa      STR      r0,[r2,#0x14]
        0x08002d2c:    f44f4000    O..@    MOV      r0,#0x8000
        0x08002d30:    6110        .a      STR      r0,[r2,#0x10]
        0x08002d32:    6a13        .j      LDR      r3,[r2,#0x20]
        0x08002d34:    f7fffe14    ....    BL       LL_Flash_Unlock ; 0x8002960
        0x08002d38:    2800        .(      CMP      r0,#0
        0x08002d3a:    d129        ).      BNE      0x8002d90 ; STMFLASH_BankSwitch + 112
        0x08002d3c:    f7fffd98    ....    BL       LL_FLASH_OB_Unlock ; 0x8002870
        0x08002d40:    6951        Qi      LDR      r1,[r2,#0x14]
        0x08002d42:    0049        I.      LSLS     r1,r1,#1
        0x08002d44:    d40d        ..      BMI      0x8002d62 ; STMFLASH_BankSwitch + 66
        0x08002d46:    6911        .i      LDR      r1,[r2,#0x10]
        0x08002d48:    f3c14100    ...A    UBFX     r1,r1,#16,#1
        0x08002d4c:    2900        .)      CMP      r1,#0
        0x08002d4e:    d1fa        ..      BNE      0x8002d46 ; STMFLASH_BankSwitch + 38
        0x08002d50:    02d9        ..      LSLS     r1,r3,#11
        0x08002d52:    6a11        .j      LDR      r1,[r2,#0x20]
        0x08002d54:    d502        ..      BPL      0x8002d5c ; STMFLASH_BankSwitch + 60
        0x08002d56:    f4211180    !...    BIC      r1,r1,#0x100000
        0x08002d5a:    e001        ..      B        0x8002d60 ; STMFLASH_BankSwitch + 64
        0x08002d5c:    f4411180    A...    ORR      r1,r1,#0x100000
        0x08002d60:    6211        .b      STR      r1,[r2,#0x20]
        0x08002d62:    6951        Qi      LDR      r1,[r2,#0x14]
        0x08002d64:    f4413100    A..1    ORR      r1,r1,#0x20000
        0x08002d68:    6151        Qa      STR      r1,[r2,#0x14]
        0x08002d6a:    6911        .i      LDR      r1,[r2,#0x10]
        0x08002d6c:    f3c14100    ...A    UBFX     r1,r1,#16,#1
        0x08002d70:    2900        .)      CMP      r1,#0
        0x08002d72:    d1fa        ..      BNE      0x8002d6a ; STMFLASH_BankSwitch + 74
        0x08002d74:    6951        Qi      LDR      r1,[r2,#0x14]
        0x08002d76:    f4213100    !..1    BIC      r1,r1,#0x20000
        0x08002d7a:    6151        Qa      STR      r1,[r2,#0x14]
        0x08002d7c:    b918        ..      CBNZ     r0,0x8002d86 ; STMFLASH_BankSwitch + 102
        0x08002d7e:    6951        Qi      LDR      r1,[r2,#0x14]
        0x08002d80:    f0416100    A..a    ORR      r1,r1,#0x8000000
        0x08002d84:    6151        Qa      STR      r1,[r2,#0x14]
        0x08002d86:    6911        .i      LDR      r1,[r2,#0x10]
        0x08002d88:    f3c14100    ...A    UBFX     r1,r1,#16,#1
        0x08002d8c:    2900        .)      CMP      r1,#0
        0x08002d8e:    d1fa        ..      BNE      0x8002d86 ; STMFLASH_BankSwitch + 102
        0x08002d90:    bd00        ..      POP      {pc}
    $d
        0x08002d92:    0000        ..      DCW    0
        0x08002d94:    40022000    . .@    DCD    1073881088
    $t
    i.STMFLASH_Read32
    STMFLASH_Read32
        0x08002d98:    6800        .h      LDR      r0,[r0,#0]
        0x08002d9a:    4770        pG      BX       lr
    i.SysTick_Handler
    SysTick_Handler
        0x08002d9c:    f7fdbfc6    ....    B        HAL_IncTick ; 0x8000d2c
    i.SystemClock_Config
    SystemClock_Config
        0x08002da0:    b510        ..      PUSH     {r4,lr}
        0x08002da2:    b0b8        ..      SUB      sp,sp,#0xe0
        0x08002da4:    2144        D!      MOVS     r1,#0x44
        0x08002da6:    a822        ".      ADD      r0,sp,#0x88
        0x08002da8:    f7fdfa49    ..I.    BL       __aeabi_memclr ; 0x800023e
        0x08002dac:    2114        .!      MOVS     r1,#0x14
        0x08002dae:    a833        3.      ADD      r0,sp,#0xcc
        0x08002db0:    f7fdfa45    ..E.    BL       __aeabi_memclr ; 0x800023e
        0x08002db4:    2188        .!      MOVS     r1,#0x88
        0x08002db6:    4668        hF      MOV      r0,sp
        0x08002db8:    f7fdfa41    ..A.    BL       __aeabi_memclr ; 0x800023e
        0x08002dbc:    2002        .       MOVS     r0,#2
        0x08002dbe:    01c1        ..      LSLS     r1,r0,#7
        0x08002dc0:    9125        %.      STR      r1,[sp,#0x94]
        0x08002dc2:    2110        .!      MOVS     r1,#0x10
        0x08002dc4:    9022        ".      STR      r0,[sp,#0x88]
        0x08002dc6:    9126        &.      STR      r1,[sp,#0x98]
        0x08002dc8:    902c        ,.      STR      r0,[sp,#0xb0]
        0x08002dca:    2101        .!      MOVS     r1,#1
        0x08002dcc:    e9cd012d    ..-.    STRD     r0,r1,[sp,#0xb4]
        0x08002dd0:    210a        .!      MOVS     r1,#0xa
        0x08002dd2:    912f        /.      STR      r1,[sp,#0xbc]
        0x08002dd4:    2107        .!      MOVS     r1,#7
        0x08002dd6:    e9cd1030    ..0.    STRD     r1,r0,[sp,#0xc0]
        0x08002dda:    9032        2.      STR      r0,[sp,#0xc8]
        0x08002ddc:    a822        ".      ADD      r0,sp,#0x88
        0x08002dde:    f7fefb55    ..U.    BL       HAL_RCC_OscConfig ; 0x800148c
        0x08002de2:    200f        .       MOVS     r0,#0xf
        0x08002de4:    2400        .$      MOVS     r4,#0
        0x08002de6:    9033        3.      STR      r0,[sp,#0xcc]
        0x08002de8:    2003        .       MOVS     r0,#3
        0x08002dea:    e9cd0434    ..4.    STRD     r0,r4,[sp,#0xd0]
        0x08002dee:    9436        6.      STR      r4,[sp,#0xd8]
        0x08002df0:    2104        .!      MOVS     r1,#4
        0x08002df2:    a833        3.      ADD      r0,sp,#0xcc
        0x08002df4:    9437        7.      STR      r4,[sp,#0xdc]
        0x08002df6:    f7fefa43    ..C.    BL       HAL_RCC_ClockConfig ; 0x8001280
        0x08002dfa:    2082        .       MOVS     r0,#0x82
        0x08002dfc:    940f        ..      STR      r4,[sp,#0x3c]
        0x08002dfe:    9000        ..      STR      r0,[sp,#0]
        0x08002e00:    9415        ..      STR      r4,[sp,#0x54]
        0x08002e02:    4668        hF      MOV      r0,sp
        0x08002e04:    f7fef864    ..d.    BL       HAL_RCCEx_PeriphCLKConfig ; 0x8000ed0
        0x08002e08:    f44f7000    O..p    MOV      r0,#0x200
        0x08002e0c:    f7fef824    ..$.    BL       HAL_PWREx_ControlVoltageScaling ; 0x8000e58
        0x08002e10:    b038        8.      ADD      sp,sp,#0xe0
        0x08002e12:    bd10        ..      POP      {r4,pc}
    i.SystemInit
    SystemInit
        0x08002e14:    480d        .H      LDR      r0,[pc,#52] ; [0x8002e4c] = 0xe000ed88
        0x08002e16:    6801        .h      LDR      r1,[r0,#0]
        0x08002e18:    f4410170    A.p.    ORR      r1,r1,#0xf00000
        0x08002e1c:    6001        .`      STR      r1,[r0,#0]
        0x08002e1e:    480c        .H      LDR      r0,[pc,#48] ; [0x8002e50] = 0x40021000
        0x08002e20:    6801        .h      LDR      r1,[r0,#0]
        0x08002e22:    f0410101    A...    ORR      r1,r1,#1
        0x08002e26:    6001        .`      STR      r1,[r0,#0]
        0x08002e28:    2100        .!      MOVS     r1,#0
        0x08002e2a:    6081        .`      STR      r1,[r0,#8]
        0x08002e2c:    6802        .h      LDR      r2,[r0,#0]
        0x08002e2e:    4b09        .K      LDR      r3,[pc,#36] ; [0x8002e54] = 0xeaf6ffff
        0x08002e30:    401a        .@      ANDS     r2,r2,r3
        0x08002e32:    6002        .`      STR      r2,[r0,#0]
        0x08002e34:    1482        ..      ASRS     r2,r0,#18
        0x08002e36:    60c2        .`      STR      r2,[r0,#0xc]
        0x08002e38:    6802        .h      LDR      r2,[r0,#0]
        0x08002e3a:    f4222280    ".."    BIC      r2,r2,#0x40000
        0x08002e3e:    6002        .`      STR      r2,[r0,#0]
        0x08002e40:    6181        .a      STR      r1,[r0,#0x18]
        0x08002e42:    4902        .I      LDR      r1,[pc,#8] ; [0x8002e4c] = 0xe000ed88
        0x08002e44:    03c0        ..      LSLS     r0,r0,#15
        0x08002e46:    3980        .9      SUBS     r1,r1,#0x80
        0x08002e48:    6008        .`      STR      r0,[r1,#0]
        0x08002e4a:    4770        pG      BX       lr
    $d
        0x08002e4c:    e000ed88    ....    DCD    3758157192
        0x08002e50:    40021000    ...@    DCD    1073876992
        0x08002e54:    eaf6ffff    ....    DCD    3942055935
    $t
    i.TIM2_IRQHandler
    TIM2_IRQHandler
        0x08002e58:    4805        .H      LDR      r0,[pc,#20] ; [0x8002e70] = 0x2000003c
        0x08002e5a:    f06f0102    o...    MVN      r1,#2
        0x08002e5e:    6802        .h      LDR      r2,[r0,#0]
        0x08002e60:    6111        .a      STR      r1,[r2,#0x10]
        0x08002e62:    6800        .h      LDR      r0,[r0,#0]
        0x08002e64:    6b41        Ak      LDR      r1,[r0,#0x34]
        0x08002e66:    4a03        .J      LDR      r2,[pc,#12] ; [0x8002e74] = 0xf42400
        0x08002e68:    4411        .D      ADD      r1,r1,r2
        0x08002e6a:    6341        Ac      STR      r1,[r0,#0x34]
        0x08002e6c:    f7fdba4a    ..J.    B        DS3231_GetTime ; 0x8000304
    $d
        0x08002e70:    2000003c    <..     DCD    536870972
        0x08002e74:    00f42400    .$..    DCD    16000000
    $t
    i.TIM_Base_SetConfig
    TIM_Base_SetConfig
        0x08002e78:    e92d47f0    -..G    PUSH     {r4-r10,lr}
        0x08002e7c:    6802        .h      LDR      r2,[r0,#0]
        0x08002e7e:    4b26        &K      LDR      r3,[pc,#152] ; [0x8002f18] = 0x40012c00
        0x08002e80:    4d26        &M      LDR      r5,[pc,#152] ; [0x8002f1c] = 0x40000400
        0x08002e82:    4e27        'N      LDR      r6,[pc,#156] ; [0x8002f20] = 0x40000800
        0x08002e84:    4f27        'O      LDR      r7,[pc,#156] ; [0x8002f24] = 0x40000c00
        0x08002e86:    4c28        (L      LDR      r4,[pc,#160] ; [0x8002f28] = 0x40013400
        0x08002e88:    f04f4a80    O..J    MOV      r10,#0x40000000
        0x08002e8c:    4298        .B      CMP      r0,r3
        0x08002e8e:    d009        ..      BEQ      0x8002ea4 ; TIM_Base_SetConfig + 44
        0x08002e90:    4550        PE      CMP      r0,r10
        0x08002e92:    d007        ..      BEQ      0x8002ea4 ; TIM_Base_SetConfig + 44
        0x08002e94:    42a8        .B      CMP      r0,r5
        0x08002e96:    d005        ..      BEQ      0x8002ea4 ; TIM_Base_SetConfig + 44
        0x08002e98:    42b0        .B      CMP      r0,r6
        0x08002e9a:    d003        ..      BEQ      0x8002ea4 ; TIM_Base_SetConfig + 44
        0x08002e9c:    42b8        .B      CMP      r0,r7
        0x08002e9e:    d001        ..      BEQ      0x8002ea4 ; TIM_Base_SetConfig + 44
        0x08002ea0:    42a0        .B      CMP      r0,r4
        0x08002ea2:    d104        ..      BNE      0x8002eae ; TIM_Base_SetConfig + 54
        0x08002ea4:    f0220c70    ".p.    BIC      r12,r2,#0x70
        0x08002ea8:    684a        Jh      LDR      r2,[r1,#4]
        0x08002eaa:    ea42020c    B...    ORR      r2,r2,r12
        0x08002eae:    f8dfc07c    ..|.    LDR      r12,[pc,#124] ; [0x8002f2c] = 0x40014000
        0x08002eb2:    f8df807c    ..|.    LDR      r8,[pc,#124] ; [0x8002f30] = 0x40014400
        0x08002eb6:    f8df907c    ..|.    LDR      r9,[pc,#124] ; [0x8002f34] = 0x40014800
        0x08002eba:    4298        .B      CMP      r0,r3
        0x08002ebc:    d00f        ..      BEQ      0x8002ede ; TIM_Base_SetConfig + 102
        0x08002ebe:    4550        PE      CMP      r0,r10
        0x08002ec0:    d00d        ..      BEQ      0x8002ede ; TIM_Base_SetConfig + 102
        0x08002ec2:    42a8        .B      CMP      r0,r5
        0x08002ec4:    d00b        ..      BEQ      0x8002ede ; TIM_Base_SetConfig + 102
        0x08002ec6:    42b0        .B      CMP      r0,r6
        0x08002ec8:    d009        ..      BEQ      0x8002ede ; TIM_Base_SetConfig + 102
        0x08002eca:    42b8        .B      CMP      r0,r7
        0x08002ecc:    d007        ..      BEQ      0x8002ede ; TIM_Base_SetConfig + 102
        0x08002ece:    42a0        .B      CMP      r0,r4
        0x08002ed0:    d005        ..      BEQ      0x8002ede ; TIM_Base_SetConfig + 102
        0x08002ed2:    4560        `E      CMP      r0,r12
        0x08002ed4:    d003        ..      BEQ      0x8002ede ; TIM_Base_SetConfig + 102
        0x08002ed6:    4540        @E      CMP      r0,r8
        0x08002ed8:    d001        ..      BEQ      0x8002ede ; TIM_Base_SetConfig + 102
        0x08002eda:    4548        HE      CMP      r0,r9
        0x08002edc:    d103        ..      BNE      0x8002ee6 ; TIM_Base_SetConfig + 110
        0x08002ede:    f4227540    ".@u    BIC      r5,r2,#0x300
        0x08002ee2:    68ca        .h      LDR      r2,[r1,#0xc]
        0x08002ee4:    432a        *C      ORRS     r2,r2,r5
        0x08002ee6:    694d        Mi      LDR      r5,[r1,#0x14]
        0x08002ee8:    f0220280    "...    BIC      r2,r2,#0x80
        0x08002eec:    432a        *C      ORRS     r2,r2,r5
        0x08002eee:    6002        .`      STR      r2,[r0,#0]
        0x08002ef0:    688a        .h      LDR      r2,[r1,#8]
        0x08002ef2:    62c2        .b      STR      r2,[r0,#0x2c]
        0x08002ef4:    680a        .h      LDR      r2,[r1,#0]
        0x08002ef6:    6282        .b      STR      r2,[r0,#0x28]
        0x08002ef8:    4298        .B      CMP      r0,r3
        0x08002efa:    d007        ..      BEQ      0x8002f0c ; TIM_Base_SetConfig + 148
        0x08002efc:    42a0        .B      CMP      r0,r4
        0x08002efe:    d005        ..      BEQ      0x8002f0c ; TIM_Base_SetConfig + 148
        0x08002f00:    4560        `E      CMP      r0,r12
        0x08002f02:    d003        ..      BEQ      0x8002f0c ; TIM_Base_SetConfig + 148
        0x08002f04:    4540        @E      CMP      r0,r8
        0x08002f06:    d001        ..      BEQ      0x8002f0c ; TIM_Base_SetConfig + 148
        0x08002f08:    4548        HE      CMP      r0,r9
        0x08002f0a:    d101        ..      BNE      0x8002f10 ; TIM_Base_SetConfig + 152
        0x08002f0c:    6909        .i      LDR      r1,[r1,#0x10]
        0x08002f0e:    6301        .c      STR      r1,[r0,#0x30]
        0x08002f10:    2101        .!      MOVS     r1,#1
        0x08002f12:    6141        Aa      STR      r1,[r0,#0x14]
        0x08002f14:    e8bd87f0    ....    POP      {r4-r10,pc}
    $d
        0x08002f18:    40012c00    .,.@    DCD    1073818624
        0x08002f1c:    40000400    ...@    DCD    1073742848
        0x08002f20:    40000800    ...@    DCD    1073743872
        0x08002f24:    40000c00    ...@    DCD    1073744896
        0x08002f28:    40013400    .4.@    DCD    1073820672
        0x08002f2c:    40014000    .@.@    DCD    1073823744
        0x08002f30:    40014400    .D.@    DCD    1073824768
        0x08002f34:    40014800    .H.@    DCD    1073825792
    $t
    i.TIM_CCxChannelCmd
    TIM_CCxChannelCmd
        0x08002f38:    b510        ..      PUSH     {r4,lr}
        0x08002f3a:    f001031f    ....    AND      r3,r1,#0x1f
        0x08002f3e:    2101        .!      MOVS     r1,#1
        0x08002f40:    6a04        .j      LDR      r4,[r0,#0x20]
        0x08002f42:    4099        .@      LSLS     r1,r1,r3
        0x08002f44:    438c        .C      BICS     r4,r4,r1
        0x08002f46:    6204        .b      STR      r4,[r0,#0x20]
        0x08002f48:    6a01        .j      LDR      r1,[r0,#0x20]
        0x08002f4a:    409a        .@      LSLS     r2,r2,r3
        0x08002f4c:    4311        .C      ORRS     r1,r1,r2
        0x08002f4e:    6201        .b      STR      r1,[r0,#0x20]
        0x08002f50:    bd10        ..      POP      {r4,pc}
    i.TIM_ETR_SetConfig
    TIM_ETR_SetConfig
        0x08002f52:    b510        ..      PUSH     {r4,lr}
        0x08002f54:    6884        .h      LDR      r4,[r0,#8]
        0x08002f56:    ea422203    B.."    ORR      r2,r2,r3,LSL #8
        0x08002f5a:    f424447f    $..D    BIC      r4,r4,#0xff00
        0x08002f5e:    430a        .C      ORRS     r2,r2,r1
        0x08002f60:    4322        "C      ORRS     r2,r2,r4
        0x08002f62:    6082        .`      STR      r2,[r0,#8]
        0x08002f64:    bd10        ..      POP      {r4,pc}
    i.TIM_ITRx_SetConfig
    TIM_ITRx_SetConfig
        0x08002f66:    6882        .h      LDR      r2,[r0,#8]
        0x08002f68:    f0220270    ".p.    BIC      r2,r2,#0x70
        0x08002f6c:    430a        .C      ORRS     r2,r2,r1
        0x08002f6e:    f0420107    B...    ORR      r1,r2,#7
        0x08002f72:    6081        .`      STR      r1,[r0,#8]
        0x08002f74:    4770        pG      BX       lr
    i.TIM_TI1_ConfigInputStage
    TIM_TI1_ConfigInputStage
        0x08002f76:    b510        ..      PUSH     {r4,lr}
        0x08002f78:    6a03        .j      LDR      r3,[r0,#0x20]
        0x08002f7a:    6a04        .j      LDR      r4,[r0,#0x20]
        0x08002f7c:    f0240401    $...    BIC      r4,r4,#1
        0x08002f80:    6204        .b      STR      r4,[r0,#0x20]
        0x08002f82:    6984        .i      LDR      r4,[r0,#0x18]
        0x08002f84:    f02404f0    $...    BIC      r4,r4,#0xf0
        0x08002f88:    ea441402    D...    ORR      r4,r4,r2,LSL #4
        0x08002f8c:    f023020a    #...    BIC      r2,r3,#0xa
        0x08002f90:    430a        .C      ORRS     r2,r2,r1
        0x08002f92:    6184        .a      STR      r4,[r0,#0x18]
        0x08002f94:    6202        .b      STR      r2,[r0,#0x20]
        0x08002f96:    bd10        ..      POP      {r4,pc}
    i.TIM_TI2_ConfigInputStage
    TIM_TI2_ConfigInputStage
        0x08002f98:    b510        ..      PUSH     {r4,lr}
        0x08002f9a:    6a03        .j      LDR      r3,[r0,#0x20]
        0x08002f9c:    f0230310    #...    BIC      r3,r3,#0x10
        0x08002fa0:    6203        .b      STR      r3,[r0,#0x20]
        0x08002fa2:    6983        .i      LDR      r3,[r0,#0x18]
        0x08002fa4:    6a04        .j      LDR      r4,[r0,#0x20]
        0x08002fa6:    f4234370    #.pC    BIC      r3,r3,#0xf000
        0x08002faa:    ea433202    C..2    ORR      r2,r3,r2,LSL #12
        0x08002fae:    f02403a0    $...    BIC      r3,r4,#0xa0
        0x08002fb2:    ea431101    C...    ORR      r1,r3,r1,LSL #4
        0x08002fb6:    6182        .a      STR      r2,[r0,#0x18]
        0x08002fb8:    6201        .b      STR      r1,[r0,#0x20]
        0x08002fba:    bd10        ..      POP      {r4,pc}
    i.UART_AdvFeatureConfig
    UART_AdvFeatureConfig
        0x08002fbc:    f8901024    ..$.    LDRB     r1,[r0,#0x24]
        0x08002fc0:    07c9        ..      LSLS     r1,r1,#31
        0x08002fc2:    d006        ..      BEQ      0x8002fd2 ; UART_AdvFeatureConfig + 22
        0x08002fc4:    6801        .h      LDR      r1,[r0,#0]
        0x08002fc6:    684a        Jh      LDR      r2,[r1,#4]
        0x08002fc8:    6a83        .j      LDR      r3,[r0,#0x28]
        0x08002fca:    f4223200    "..2    BIC      r2,r2,#0x20000
        0x08002fce:    431a        .C      ORRS     r2,r2,r3
        0x08002fd0:    604a        J`      STR      r2,[r1,#4]
        0x08002fd2:    f8901024    ..$.    LDRB     r1,[r0,#0x24]
        0x08002fd6:    0789        ..      LSLS     r1,r1,#30
        0x08002fd8:    d506        ..      BPL      0x8002fe8 ; UART_AdvFeatureConfig + 44
        0x08002fda:    6801        .h      LDR      r1,[r0,#0]
        0x08002fdc:    684a        Jh      LDR      r2,[r1,#4]
        0x08002fde:    6ac3        .j      LDR      r3,[r0,#0x2c]
        0x08002fe0:    f4223280    "..2    BIC      r2,r2,#0x10000
        0x08002fe4:    431a        .C      ORRS     r2,r2,r3
        0x08002fe6:    604a        J`      STR      r2,[r1,#4]
        0x08002fe8:    f8901024    ..$.    LDRB     r1,[r0,#0x24]
        0x08002fec:    0749        I.      LSLS     r1,r1,#29
        0x08002fee:    d506        ..      BPL      0x8002ffe ; UART_AdvFeatureConfig + 66
        0x08002ff0:    6801        .h      LDR      r1,[r0,#0]
        0x08002ff2:    684a        Jh      LDR      r2,[r1,#4]
        0x08002ff4:    6b03        .k      LDR      r3,[r0,#0x30]
        0x08002ff6:    f4222280    ".."    BIC      r2,r2,#0x40000
        0x08002ffa:    431a        .C      ORRS     r2,r2,r3
        0x08002ffc:    604a        J`      STR      r2,[r1,#4]
        0x08002ffe:    f8901024    ..$.    LDRB     r1,[r0,#0x24]
        0x08003002:    0709        ..      LSLS     r1,r1,#28
        0x08003004:    d506        ..      BPL      0x8003014 ; UART_AdvFeatureConfig + 88
        0x08003006:    6801        .h      LDR      r1,[r0,#0]
        0x08003008:    684a        Jh      LDR      r2,[r1,#4]
        0x0800300a:    6b43        Ck      LDR      r3,[r0,#0x34]
        0x0800300c:    f4224200    "..B    BIC      r2,r2,#0x8000
        0x08003010:    431a        .C      ORRS     r2,r2,r3
        0x08003012:    604a        J`      STR      r2,[r1,#4]
        0x08003014:    f8901024    ..$.    LDRB     r1,[r0,#0x24]
        0x08003018:    06c9        ..      LSLS     r1,r1,#27
        0x0800301a:    d506        ..      BPL      0x800302a ; UART_AdvFeatureConfig + 110
        0x0800301c:    6801        .h      LDR      r1,[r0,#0]
        0x0800301e:    688a        .h      LDR      r2,[r1,#8]
        0x08003020:    6b83        .k      LDR      r3,[r0,#0x38]
        0x08003022:    f4225280    "..R    BIC      r2,r2,#0x1000
        0x08003026:    431a        .C      ORRS     r2,r2,r3
        0x08003028:    608a        .`      STR      r2,[r1,#8]
        0x0800302a:    f8901024    ..$.    LDRB     r1,[r0,#0x24]
        0x0800302e:    0689        ..      LSLS     r1,r1,#26
        0x08003030:    d506        ..      BPL      0x8003040 ; UART_AdvFeatureConfig + 132
        0x08003032:    6801        .h      LDR      r1,[r0,#0]
        0x08003034:    688a        .h      LDR      r2,[r1,#8]
        0x08003036:    6bc3        .k      LDR      r3,[r0,#0x3c]
        0x08003038:    f4225200    "..R    BIC      r2,r2,#0x2000
        0x0800303c:    431a        .C      ORRS     r2,r2,r3
        0x0800303e:    608a        .`      STR      r2,[r1,#8]
        0x08003040:    f8901024    ..$.    LDRB     r1,[r0,#0x24]
        0x08003044:    0649        I.      LSLS     r1,r1,#25
        0x08003046:    d511        ..      BPL      0x800306c ; UART_AdvFeatureConfig + 176
        0x08003048:    6801        .h      LDR      r1,[r0,#0]
        0x0800304a:    684a        Jh      LDR      r2,[r1,#4]
        0x0800304c:    6c03        .l      LDR      r3,[r0,#0x40]
        0x0800304e:    f4221280    "...    BIC      r2,r2,#0x100000
        0x08003052:    431a        .C      ORRS     r2,r2,r3
        0x08003054:    604a        J`      STR      r2,[r1,#4]
        0x08003056:    6c01        .l      LDR      r1,[r0,#0x40]
        0x08003058:    f5b11f80    ....    CMP      r1,#0x100000
        0x0800305c:    d106        ..      BNE      0x800306c ; UART_AdvFeatureConfig + 176
        0x0800305e:    6801        .h      LDR      r1,[r0,#0]
        0x08003060:    684a        Jh      LDR      r2,[r1,#4]
        0x08003062:    6c43        Cl      LDR      r3,[r0,#0x44]
        0x08003064:    f42202c0    "...    BIC      r2,r2,#0x600000
        0x08003068:    431a        .C      ORRS     r2,r2,r3
        0x0800306a:    604a        J`      STR      r2,[r1,#4]
        0x0800306c:    f8901024    ..$.    LDRB     r1,[r0,#0x24]
        0x08003070:    0609        ..      LSLS     r1,r1,#24
        0x08003072:    d506        ..      BPL      0x8003082 ; UART_AdvFeatureConfig + 198
        0x08003074:    6801        .h      LDR      r1,[r0,#0]
        0x08003076:    684a        Jh      LDR      r2,[r1,#4]
        0x08003078:    6c80        .l      LDR      r0,[r0,#0x48]
        0x0800307a:    f4222200    ".."    BIC      r2,r2,#0x80000
        0x0800307e:    4302        .C      ORRS     r2,r2,r0
        0x08003080:    604a        J`      STR      r2,[r1,#4]
        0x08003082:    4770        pG      BX       lr
    i.UART_CheckIdleState
    UART_CheckIdleState
        0x08003084:    b5f8        ..      PUSH     {r3-r7,lr}
        0x08003086:    2600        .&      MOVS     r6,#0
        0x08003088:    4604        .F      MOV      r4,r0
        0x0800308a:    67c6        .g      STR      r6,[r0,#0x7c]
        0x0800308c:    f7fdfbc2    ....    BL       HAL_GetTick ; 0x8000814
        0x08003090:    4605        .F      MOV      r5,r0
        0x08003092:    6820         h      LDR      r0,[r4,#0]
        0x08003094:    6800        .h      LDR      r0,[r0,#0]
        0x08003096:    f06f477e    o.~G    MVN      r7,#0xfe000000
        0x0800309a:    0700        ..      LSLS     r0,r0,#28
        0x0800309c:    d508        ..      BPL      0x80030b0 ; UART_CheckIdleState + 44
        0x0800309e:    462b        +F      MOV      r3,r5
        0x080030a0:    2200        ."      MOVS     r2,#0
        0x080030a2:    f44f1100    O...    MOV      r1,#0x200000
        0x080030a6:    4620         F      MOV      r0,r4
        0x080030a8:    9700        ..      STR      r7,[sp,#0]
        0x080030aa:    f000f967    ..g.    BL       UART_WaitOnFlagUntilTimeout ; 0x800337c
        0x080030ae:    b960        `.      CBNZ     r0,0x80030ca ; UART_CheckIdleState + 70
        0x080030b0:    6820         h      LDR      r0,[r4,#0]
        0x080030b2:    6800        .h      LDR      r0,[r0,#0]
        0x080030b4:    0740        @.      LSLS     r0,r0,#29
        0x080030b6:    d50a        ..      BPL      0x80030ce ; UART_CheckIdleState + 74
        0x080030b8:    462b        +F      MOV      r3,r5
        0x080030ba:    2200        ."      MOVS     r2,#0
        0x080030bc:    f44f0180    O...    MOV      r1,#0x400000
        0x080030c0:    4620         F      MOV      r0,r4
        0x080030c2:    9700        ..      STR      r7,[sp,#0]
        0x080030c4:    f000f95a    ..Z.    BL       UART_WaitOnFlagUntilTimeout ; 0x800337c
        0x080030c8:    b108        ..      CBZ      r0,0x80030ce ; UART_CheckIdleState + 74
        0x080030ca:    2003        .       MOVS     r0,#3
        0x080030cc:    bdf8        ..      POP      {r3-r7,pc}
        0x080030ce:    2020                MOVS     r0,#0x20
        0x080030d0:    6760        `g      STR      r0,[r4,#0x74]
        0x080030d2:    67a0        .g      STR      r0,[r4,#0x78]
        0x080030d4:    f8846070    ..p`    STRB     r6,[r4,#0x70]
        0x080030d8:    2000        .       MOVS     r0,#0
        0x080030da:    bdf8        ..      POP      {r3-r7,pc}
    i.UART_SetConfig
    UART_SetConfig
        0x080030dc:    e92d41f0    -..A    PUSH     {r4-r8,lr}
        0x080030e0:    4605        .F      MOV      r5,r0
        0x080030e2:    6801        .h      LDR      r1,[r0,#0]
        0x080030e4:    6880        .h      LDR      r0,[r0,#8]
        0x080030e6:    692b        +i      LDR      r3,[r5,#0x10]
        0x080030e8:    69ec        .i      LDR      r4,[r5,#0x1c]
        0x080030ea:    4318        .C      ORRS     r0,r0,r3
        0x080030ec:    696b        ki      LDR      r3,[r5,#0x14]
        0x080030ee:    2700        .'      MOVS     r7,#0
        0x080030f0:    4323        #C      ORRS     r3,r3,r4
        0x080030f2:    4318        .C      ORRS     r0,r0,r3
        0x080030f4:    4a95        .J      LDR      r2,[pc,#596] ; [0x800334c] = 0x40008000
        0x080030f6:    680b        .h      LDR      r3,[r1,#0]
        0x080030f8:    4c95        .L      LDR      r4,[pc,#596] ; [0x8003350] = 0xefff69f3
        0x080030fa:    4023        #@      ANDS     r3,r3,r4
        0x080030fc:    4303        .C      ORRS     r3,r3,r0
        0x080030fe:    600b        .`      STR      r3,[r1,#0]
        0x08003100:    6828        (h      LDR      r0,[r5,#0]
        0x08003102:    6841        Ah      LDR      r1,[r0,#4]
        0x08003104:    68eb        .h      LDR      r3,[r5,#0xc]
        0x08003106:    f4215140    !.@Q    BIC      r1,r1,#0x3000
        0x0800310a:    4319        .C      ORRS     r1,r1,r3
        0x0800310c:    6041        A`      STR      r1,[r0,#4]
        0x0800310e:    6829        )h      LDR      r1,[r5,#0]
        0x08003110:    69a8        .i      LDR      r0,[r5,#0x18]
        0x08003112:    4291        .B      CMP      r1,r2
        0x08003114:    d001        ..      BEQ      0x800311a ; UART_SetConfig + 62
        0x08003116:    6a2b        +j      LDR      r3,[r5,#0x20]
        0x08003118:    4318        .C      ORRS     r0,r0,r3
        0x0800311a:    688b        .h      LDR      r3,[r1,#8]
        0x0800311c:    f4236330    #.0c    BIC      r3,r3,#0xb00
        0x08003120:    4303        .C      ORRS     r3,r3,r0
        0x08003122:    608b        .`      STR      r3,[r1,#8]
        0x08003124:    4b8b        .K      LDR      r3,[pc,#556] ; [0x8003354] = 0x40013800
        0x08003126:    6829        )h      LDR      r1,[r5,#0]
        0x08003128:    488b        .H      LDR      r0,[pc,#556] ; [0x8003358] = 0x40021000
        0x0800312a:    4299        .B      CMP      r1,r3
        0x0800312c:    d10d        ..      BNE      0x800314a ; UART_SetConfig + 110
        0x0800312e:    f8d00088    ....    LDR      r0,[r0,#0x88]
        0x08003132:    f0100003    ....    ANDS     r0,r0,#3
        0x08003136:    d006        ..      BEQ      0x8003146 ; UART_SetConfig + 106
        0x08003138:    2801        .(      CMP      r0,#1
        0x0800313a:    d068        h.      BEQ      0x800320e ; UART_SetConfig + 306
        0x0800313c:    2802        .(      CMP      r0,#2
        0x0800313e:    d064        d.      BEQ      0x800320a ; UART_SetConfig + 302
        0x08003140:    2803        .(      CMP      r0,#3
        0x08003142:    d151        Q.      BNE      0x80031e8 ; UART_SetConfig + 268
        0x08003144:    e065        e.      B        0x8003212 ; UART_SetConfig + 310
        0x08003146:    2401        .$      MOVS     r4,#1
        0x08003148:    e04f        O.      B        0x80031ea ; UART_SetConfig + 270
        0x0800314a:    4b84        .K      LDR      r3,[pc,#528] ; [0x800335c] = 0x40004400
        0x0800314c:    4299        .B      CMP      r1,r3
        0x0800314e:    d10b        ..      BNE      0x8003168 ; UART_SetConfig + 140
        0x08003150:    f8d00088    ....    LDR      r0,[r0,#0x88]
        0x08003154:    f010000c    ....    ANDS     r0,r0,#0xc
        0x08003158:    d055        U.      BEQ      0x8003206 ; UART_SetConfig + 298
        0x0800315a:    2804        .(      CMP      r0,#4
        0x0800315c:    d057        W.      BEQ      0x800320e ; UART_SetConfig + 306
        0x0800315e:    2808        .(      CMP      r0,#8
        0x08003160:    d053        S.      BEQ      0x800320a ; UART_SetConfig + 302
        0x08003162:    280c        .(      CMP      r0,#0xc
        0x08003164:    d140        @.      BNE      0x80031e8 ; UART_SetConfig + 268
        0x08003166:    e054        T.      B        0x8003212 ; UART_SetConfig + 310
        0x08003168:    4b7d        }K      LDR      r3,[pc,#500] ; [0x8003360] = 0x40004800
        0x0800316a:    4299        .B      CMP      r1,r3
        0x0800316c:    d10b        ..      BNE      0x8003186 ; UART_SetConfig + 170
        0x0800316e:    f8d00088    ....    LDR      r0,[r0,#0x88]
        0x08003172:    f0100030    ..0.    ANDS     r0,r0,#0x30
        0x08003176:    d046        F.      BEQ      0x8003206 ; UART_SetConfig + 298
        0x08003178:    2810        .(      CMP      r0,#0x10
        0x0800317a:    d048        H.      BEQ      0x800320e ; UART_SetConfig + 306
        0x0800317c:    2820         (      CMP      r0,#0x20
        0x0800317e:    d044        D.      BEQ      0x800320a ; UART_SetConfig + 302
        0x08003180:    2830        0(      CMP      r0,#0x30
        0x08003182:    d131        1.      BNE      0x80031e8 ; UART_SetConfig + 268
        0x08003184:    e045        E.      B        0x8003212 ; UART_SetConfig + 310
        0x08003186:    4b77        wK      LDR      r3,[pc,#476] ; [0x8003364] = 0x40004c00
        0x08003188:    4299        .B      CMP      r1,r3
        0x0800318a:    d10b        ..      BNE      0x80031a4 ; UART_SetConfig + 200
        0x0800318c:    f8d00088    ....    LDR      r0,[r0,#0x88]
        0x08003190:    f01000c0    ....    ANDS     r0,r0,#0xc0
        0x08003194:    d037        7.      BEQ      0x8003206 ; UART_SetConfig + 298
        0x08003196:    2840        @(      CMP      r0,#0x40
        0x08003198:    d039        9.      BEQ      0x800320e ; UART_SetConfig + 306
        0x0800319a:    2880        .(      CMP      r0,#0x80
        0x0800319c:    d035        5.      BEQ      0x800320a ; UART_SetConfig + 302
        0x0800319e:    28c0        .(      CMP      r0,#0xc0
        0x080031a0:    d122        ".      BNE      0x80031e8 ; UART_SetConfig + 268
        0x080031a2:    e036        6.      B        0x8003212 ; UART_SetConfig + 310
        0x080031a4:    4b70        pK      LDR      r3,[pc,#448] ; [0x8003368] = 0x40005000
        0x080031a6:    4299        .B      CMP      r1,r3
        0x080031a8:    d10e        ..      BNE      0x80031c8 ; UART_SetConfig + 236
        0x080031aa:    f8d00088    ....    LDR      r0,[r0,#0x88]
        0x080031ae:    f4107040    ..@p    ANDS     r0,r0,#0x300
        0x080031b2:    d028        (.      BEQ      0x8003206 ; UART_SetConfig + 298
        0x080031b4:    f5b07f80    ....    CMP      r0,#0x100
        0x080031b8:    d029        ).      BEQ      0x800320e ; UART_SetConfig + 306
        0x080031ba:    f5b07f00    ....    CMP      r0,#0x200
        0x080031be:    d024        $.      BEQ      0x800320a ; UART_SetConfig + 302
        0x080031c0:    f5b07f40    ..@.    CMP      r0,#0x300
        0x080031c4:    d110        ..      BNE      0x80031e8 ; UART_SetConfig + 268
        0x080031c6:    e024        $.      B        0x8003212 ; UART_SetConfig + 310
        0x080031c8:    4291        .B      CMP      r1,r2
        0x080031ca:    d10d        ..      BNE      0x80031e8 ; UART_SetConfig + 268
        0x080031cc:    f8d00088    ....    LDR      r0,[r0,#0x88]
        0x080031d0:    f4106040    ..@`    ANDS     r0,r0,#0xc00
        0x080031d4:    d017        ..      BEQ      0x8003206 ; UART_SetConfig + 298
        0x080031d6:    f5b06f80    ...o    CMP      r0,#0x400
        0x080031da:    d018        ..      BEQ      0x800320e ; UART_SetConfig + 306
        0x080031dc:    f5b06f00    ...o    CMP      r0,#0x800
        0x080031e0:    d013        ..      BEQ      0x800320a ; UART_SetConfig + 302
        0x080031e2:    f5b06f40    ..@o    CMP      r0,#0xc00
        0x080031e6:    d014        ..      BEQ      0x8003212 ; UART_SetConfig + 310
        0x080031e8:    2410        .$      MOVS     r4,#0x10
        0x080031ea:    4b60        `K      LDR      r3,[pc,#384] ; [0x800336c] = 0xf42400
        0x080031ec:    2600        .&      MOVS     r6,#0
        0x080031ee:    f44f4000    O..@    MOV      r0,#0x8000
        0x080031f2:    4291        .B      CMP      r1,r2
        0x080031f4:    d145        E.      BNE      0x8003282 ; UART_SetConfig + 422
        0x080031f6:    b174        t.      CBZ      r4,0x8003216 ; UART_SetConfig + 314
        0x080031f8:    2c02        .,      CMP      r4,#2
        0x080031fa:    d00f        ..      BEQ      0x800321c ; UART_SetConfig + 320
        0x080031fc:    2c04        .,      CMP      r4,#4
        0x080031fe:    d00f        ..      BEQ      0x8003220 ; UART_SetConfig + 324
        0x08003200:    2c08        .,      CMP      r4,#8
        0x08003202:    d118        ..      BNE      0x8003236 ; UART_SetConfig + 346
        0x08003204:    e00f        ..      B        0x8003226 ; UART_SetConfig + 330
        0x08003206:    2400        .$      MOVS     r4,#0
        0x08003208:    e7ef        ..      B        0x80031ea ; UART_SetConfig + 270
        0x0800320a:    2402        .$      MOVS     r4,#2
        0x0800320c:    e7ed        ..      B        0x80031ea ; UART_SetConfig + 270
        0x0800320e:    2404        .$      MOVS     r4,#4
        0x08003210:    e7eb        ..      B        0x80031ea ; UART_SetConfig + 270
        0x08003212:    2408        .$      MOVS     r4,#8
        0x08003214:    e7e9        ..      B        0x80031ea ; UART_SetConfig + 270
        0x08003216:    f7fef8c3    ....    BL       HAL_RCC_GetPCLK1Freq ; 0x80013a0
        0x0800321a:    e003        ..      B        0x8003224 ; UART_SetConfig + 328
        0x0800321c:    4618        .F      MOV      r0,r3
        0x0800321e:    e002        ..      B        0x8003226 ; UART_SetConfig + 330
        0x08003220:    f7fef8e2    ....    BL       HAL_RCC_GetSysClockFreq ; 0x80013e8
        0x08003224:    b3a8        ..      CBZ      r0,0x8003292 ; UART_SetConfig + 438
        0x08003226:    686a        jh      LDR      r2,[r5,#4]
        0x08003228:    eb020142    ..B.    ADD      r1,r2,r2,LSL #1
        0x0800322c:    4281        .B      CMP      r1,r0
        0x0800322e:    d802        ..      BHI      0x8003236 ; UART_SetConfig + 346
        0x08003230:    ebb03f02    ...?    CMP      r0,r2,LSL #12
        0x08003234:    d901        ..      BLS      0x800323a ; UART_SetConfig + 350
        0x08003236:    2701        .'      MOVS     r7,#1
        0x08003238:    e075        u.      B        0x8003326 ; UART_SetConfig + 586
        0x0800323a:    f8df8134    ..4.    LDR      r8,[pc,#308] ; [0x8003370] = 0xffcff
        0x0800323e:    b15c        \.      CBZ      r4,0x8003258 ; UART_SetConfig + 380
        0x08003240:    2c02        .,      CMP      r4,#2
        0x08003242:    d00c        ..      BEQ      0x800325e ; UART_SetConfig + 386
        0x08003244:    2c04        .,      CMP      r4,#4
        0x08003246:    d013        ..      BEQ      0x8003270 ; UART_SetConfig + 404
        0x08003248:    2c08        .,      CMP      r4,#8
        0x0800324a:    d1f4        ..      BNE      0x8003236 ; UART_SetConfig + 346
        0x0800324c:    0850        P.      LSRS     r0,r2,#1
        0x0800324e:    0521        !.      LSLS     r1,r4,#20
        0x08003250:    1840        @.      ADDS     r0,r0,r1
        0x08003252:    f1460100    F...    ADC      r1,r6,#0
        0x08003256:    e005        ..      B        0x8003264 ; UART_SetConfig + 392
        0x08003258:    f7fef8a2    ....    BL       HAL_RCC_GetPCLK1Freq ; 0x80013a0
        0x0800325c:    e00a        ..      B        0x8003274 ; UART_SetConfig + 408
        0x0800325e:    0850        P.      LSRS     r0,r2,#1
        0x08003260:    4944        DI      LDR      r1,[pc,#272] ; [0x8003374] = 0xf4240000
        0x08003262:    e7f5        ..      B        0x8003250 ; UART_SetConfig + 372
        0x08003264:    2300        .#      MOVS     r3,#0
        0x08003266:    f7fcffaf    ....    BL       __aeabi_uldivmod ; 0x80001c8
        0x0800326a:    f5a07140    ..@q    SUB      r1,r0,#0x300
        0x0800326e:    e056        V.      B        0x800331e ; UART_SetConfig + 578
        0x08003270:    f7fef8ba    ....    BL       HAL_RCC_GetSysClockFreq ; 0x80013e8
        0x08003274:    686a        jh      LDR      r2,[r5,#4]
        0x08003276:    0e01        ..      LSRS     r1,r0,#24
        0x08003278:    0203        ..      LSLS     r3,r0,#8
        0x0800327a:    0850        P.      LSRS     r0,r2,#1
        0x0800327c:    1818        ..      ADDS     r0,r3,r0
        0x0800327e:    4171        qA      ADCS     r1,r1,r6
        0x08003280:    e7f0        ..      B        0x8003264 ; UART_SetConfig + 392
        0x08003282:    69e9        .i      LDR      r1,[r5,#0x1c]
        0x08003284:    f64f78ef    O..x    MOV      r8,#0xffef
        0x08003288:    4281        .B      CMP      r1,r0
        0x0800328a:    d12f        /.      BNE      0x80032ec ; UART_SetConfig + 528
        0x0800328c:    2c09        .,      CMP      r4,#9
        0x0800328e:    d2d2        ..      BCS      0x8003236 ; UART_SetConfig + 346
        0x08003290:    e000        ..      B        0x8003294 ; UART_SetConfig + 440
        0x08003292:    e048        H.      B        0x8003326 ; UART_SetConfig + 586
        0x08003294:    e8dff004    ....    TBB      [pc,r4]
    $d
        0x08003298:    05200906    .. .    DCD    85985542
        0x0800329c:    05050523    #...    DCD    84215075
        0x080032a0:    0026        &.      DCW    38
    $t
        0x080032a2:    e7c8        ..      B        0x8003236 ; UART_SetConfig + 346
        0x080032a4:    f7fef87c    ..|.    BL       HAL_RCC_GetPCLK1Freq ; 0x80013a0
        0x080032a8:    e001        ..      B        0x80032ae ; UART_SetConfig + 466
        0x080032aa:    f7fef88b    ....    BL       HAL_RCC_GetPCLK2Freq ; 0x80013c4
        0x080032ae:    0041        A.      LSLS     r1,r0,#1
        0x080032b0:    f8d50004    ....    LDR.W    r0,[r5,#4]
        0x080032b4:    eb010150    ..P.    ADD      r1,r1,r0,LSR #1
        0x080032b8:    fbb1f0f0    ....    UDIV     r0,r1,r0
        0x080032bc:    b280        ..      UXTH     r0,r0
        0x080032be:    f1a00110    ....    SUB      r1,r0,#0x10
        0x080032c2:    4541        AE      CMP      r1,r8
        0x080032c4:    d8b7        ..      BHI      0x8003236 ; UART_SetConfig + 346
        0x080032c6:    f64f71f0    O..q    MOV      r1,#0xfff0
        0x080032ca:    4001        .@      ANDS     r1,r1,r0
        0x080032cc:    f3c00042    ..B.    UBFX     r0,r0,#1,#3
        0x080032d0:    4301        .C      ORRS     r1,r1,r0
        0x080032d2:    6828        (h      LDR      r0,[r5,#0]
        0x080032d4:    60c1        .`      STR      r1,[r0,#0xc]
        0x080032d6:    e026        &.      B        0x8003326 ; UART_SetConfig + 586
        0x080032d8:    4927        'I      LDR      r1,[pc,#156] ; [0x8003378] = 0x1e84800
        0x080032da:    6868        hh      LDR      r0,[r5,#4]
        0x080032dc:    e7ea        ..      B        0x80032b4 ; UART_SetConfig + 472
        0x080032de:    f7fef883    ....    BL       HAL_RCC_GetSysClockFreq ; 0x80013e8
        0x080032e2:    e7e4        ..      B        0x80032ae ; UART_SetConfig + 466
        0x080032e4:    f44f3180    O..1    MOV      r1,#0x10000
        0x080032e8:    6868        hh      LDR      r0,[r5,#4]
        0x080032ea:    e7e3        ..      B        0x80032b4 ; UART_SetConfig + 472
        0x080032ec:    2c09        .,      CMP      r4,#9
        0x080032ee:    d2a2        ..      BCS      0x8003236 ; UART_SetConfig + 346
        0x080032f0:    e8dff004    ....    TBB      [pc,r4]
    $d
        0x080032f4:    051e0906    ....    DCD    85854470
        0x080032f8:    05050522    "...    DCD    84215074
        0x080032fc:    0025        %.      DCW    37
    $t
        0x080032fe:    e79a        ..      B        0x8003236 ; UART_SetConfig + 346
        0x08003300:    f7fef84e    ..N.    BL       HAL_RCC_GetPCLK1Freq ; 0x80013a0
        0x08003304:    e001        ..      B        0x800330a ; UART_SetConfig + 558
        0x08003306:    f7fef85d    ..].    BL       HAL_RCC_GetPCLK2Freq ; 0x80013c4
        0x0800330a:    4601        .F      MOV      r1,r0
        0x0800330c:    6868        hh      LDR      r0,[r5,#4]
        0x0800330e:    eb010150    ..P.    ADD      r1,r1,r0,LSR #1
        0x08003312:    bf00        ..      NOP      
        0x08003314:    fbb1f0f0    ....    UDIV     r0,r1,r0
        0x08003318:    b280        ..      UXTH     r0,r0
        0x0800331a:    f1a00110    ....    SUB      r1,r0,#0x10
        0x0800331e:    4541        AE      CMP      r1,r8
        0x08003320:    d889        ..      BHI      0x8003236 ; UART_SetConfig + 346
        0x08003322:    6829        )h      LDR      r1,[r5,#0]
        0x08003324:    60c8        .`      STR      r0,[r1,#0xc]
        0x08003326:    662e        .f      STR      r6,[r5,#0x60]
        0x08003328:    4638        8F      MOV      r0,r7
        0x0800332a:    666e        nf      STR      r6,[r5,#0x64]
        0x0800332c:    e8bd81f0    ....    POP      {r4-r8,pc}
        0x08003330:    6868        hh      LDR      r0,[r5,#4]
        0x08003332:    eb030150    ..P.    ADD      r1,r3,r0,LSR #1
        0x08003336:    e7ed        ..      B        0x8003314 ; UART_SetConfig + 568
        0x08003338:    f7fef856    ..V.    BL       HAL_RCC_GetSysClockFreq ; 0x80013e8
        0x0800333c:    e7e5        ..      B        0x800330a ; UART_SetConfig + 558
        0x0800333e:    6869        ih      LDR      r1,[r5,#4]
        0x08003340:    eb000051    ..Q.    ADD      r0,r0,r1,LSR #1
        0x08003344:    fbb0f0f1    ....    UDIV     r0,r0,r1
        0x08003348:    e7e6        ..      B        0x8003318 ; UART_SetConfig + 572
    $d
        0x0800334a:    0000        ..      DCW    0
        0x0800334c:    40008000    ...@    DCD    1073774592
        0x08003350:    efff69f3    .i..    DCD    4026493427
        0x08003354:    40013800    .8.@    DCD    1073821696
        0x08003358:    40021000    ...@    DCD    1073876992
        0x0800335c:    40004400    .D.@    DCD    1073759232
        0x08003360:    40004800    .H.@    DCD    1073760256
        0x08003364:    40004c00    .L.@    DCD    1073761280
        0x08003368:    40005000    .P.@    DCD    1073762304
        0x0800336c:    00f42400    .$..    DCD    16000000
        0x08003370:    000ffcff    ....    DCD    1047807
        0x08003374:    f4240000    ..$.    DCD    4096000000
        0x08003378:    01e84800    .H..    DCD    32000000
    $t
    i.UART_WaitOnFlagUntilTimeout
    UART_WaitOnFlagUntilTimeout
        0x0800337c:    e92d41f0    -..A    PUSH     {r4-r8,lr}
        0x08003380:    4698        .F      MOV      r8,r3
        0x08003382:    4617        .F      MOV      r7,r2
        0x08003384:    460e        .F      MOV      r6,r1
        0x08003386:    4604        .F      MOV      r4,r0
        0x08003388:    9d06        ..      LDR      r5,[sp,#0x18]
        0x0800338a:    e008        ..      B        0x800339e ; UART_WaitOnFlagUntilTimeout + 34
        0x0800338c:    1c68        h.      ADDS     r0,r5,#1
        0x0800338e:    d006        ..      BEQ      0x800339e ; UART_WaitOnFlagUntilTimeout + 34
        0x08003390:    f7fdfa40    ..@.    BL       HAL_GetTick ; 0x8000814
        0x08003394:    eba00008    ....    SUB      r0,r0,r8
        0x08003398:    42a8        .B      CMP      r0,r5
        0x0800339a:    d80b        ..      BHI      0x80033b4 ; UART_WaitOnFlagUntilTimeout + 56
        0x0800339c:    b155        U.      CBZ      r5,0x80033b4 ; UART_WaitOnFlagUntilTimeout + 56
        0x0800339e:    6820         h      LDR      r0,[r4,#0]
        0x080033a0:    69c0        .i      LDR      r0,[r0,#0x1c]
        0x080033a2:    ea360000    6...    BICS     r0,r6,r0
        0x080033a6:    d017        ..      BEQ      0x80033d8 ; UART_WaitOnFlagUntilTimeout + 92
        0x080033a8:    2000        .       MOVS     r0,#0
        0x080033aa:    42b8        .B      CMP      r0,r7
        0x080033ac:    d0ee        ..      BEQ      0x800338c ; UART_WaitOnFlagUntilTimeout + 16
        0x080033ae:    2000        .       MOVS     r0,#0
        0x080033b0:    e8bd81f0    ....    POP      {r4-r8,pc}
        0x080033b4:    6820         h      LDR      r0,[r4,#0]
        0x080033b6:    6801        .h      LDR      r1,[r0,#0]
        0x080033b8:    f42171d0    !..q    BIC      r1,r1,#0x1a0
        0x080033bc:    6001        .`      STR      r1,[r0,#0]
        0x080033be:    6820         h      LDR      r0,[r4,#0]
        0x080033c0:    6881        .h      LDR      r1,[r0,#8]
        0x080033c2:    f0210101    !...    BIC      r1,r1,#1
        0x080033c6:    6081        .`      STR      r1,[r0,#8]
        0x080033c8:    2020                MOVS     r0,#0x20
        0x080033ca:    6760        `g      STR      r0,[r4,#0x74]
        0x080033cc:    67a0        .g      STR      r0,[r4,#0x78]
        0x080033ce:    2000        .       MOVS     r0,#0
        0x080033d0:    f8840070    ..p.    STRB     r0,[r4,#0x70]
        0x080033d4:    2003        .       MOVS     r0,#3
        0x080033d6:    e7eb        ..      B        0x80033b0 ; UART_WaitOnFlagUntilTimeout + 52
        0x080033d8:    2001        .       MOVS     r0,#1
        0x080033da:    e7e6        ..      B        0x80033aa ; UART_WaitOnFlagUntilTimeout + 46
    i.__0printf$6
    __0printf$6
    __1printf$6
    __2printf
        0x080033dc:    b40f        ..      PUSH     {r0-r3}
        0x080033de:    4b05        .K      LDR      r3,[pc,#20] ; [0x80033f4] = 0x80037b9
        0x080033e0:    b510        ..      PUSH     {r4,lr}
        0x080033e2:    a903        ..      ADD      r1,sp,#0xc
        0x080033e4:    4a04        .J      LDR      r2,[pc,#16] ; [0x80033f8] = 0x20000010
        0x080033e6:    9802        ..      LDR      r0,[sp,#8]
        0x080033e8:    f000f83c    ..<.    BL       _printf_core ; 0x8003464
        0x080033ec:    bc10        ..      POP      {r4}
        0x080033ee:    f85dfb14    ]...    LDR      pc,[sp],#0x14
    $d
        0x080033f2:    0000        ..      DCW    0
        0x080033f4:    080037b9    .7..    DCD    134231993
        0x080033f8:    20000010    ...     DCD    536870928
    $t
    i.__0sprintf$6
    __0sprintf$6
    __1sprintf$6
    __2sprintf
        0x080033fc:    b40f        ..      PUSH     {r0-r3}
        0x080033fe:    4b08        .K      LDR      r3,[pc,#32] ; [0x8003420] = 0x80037ad
        0x08003400:    b510        ..      PUSH     {r4,lr}
        0x08003402:    a904        ..      ADD      r1,sp,#0x10
        0x08003404:    aa02        ..      ADD      r2,sp,#8
        0x08003406:    9803        ..      LDR      r0,[sp,#0xc]
        0x08003408:    f000f82c    ..,.    BL       _printf_core ; 0x8003464
        0x0800340c:    4604        .F      MOV      r4,r0
        0x0800340e:    a902        ..      ADD      r1,sp,#8
        0x08003410:    2000        .       MOVS     r0,#0
        0x08003412:    f000f9cb    ....    BL       _sputc ; 0x80037ac
        0x08003416:    4620         F      MOV      r0,r4
        0x08003418:    bc10        ..      POP      {r4}
        0x0800341a:    f85dfb14    ]...    LDR      pc,[sp],#0x14
    $d
        0x0800341e:    0000        ..      DCW    0
        0x08003420:    080037ad    .7..    DCD    134231981
    $t
    i.__NVIC_SetPriority
    __NVIC_SetPriority
        0x08003424:    0709        ..      LSLS     r1,r1,#28
        0x08003426:    0e09        ..      LSRS     r1,r1,#24
        0x08003428:    2800        .(      CMP      r0,#0
        0x0800342a:    db04        ..      BLT      0x8003436 ; __NVIC_SetPriority + 18
        0x0800342c:    f10020e0    ...     ADD      r0,r0,#0xe000e000
        0x08003430:    f8801400    ....    STRB     r1,[r0,#0x400]
        0x08003434:    4770        pG      BX       lr
        0x08003436:    f000000f    ....    AND      r0,r0,#0xf
        0x0800343a:    f10020e0    ...     ADD      r0,r0,#0xe000e000
        0x0800343e:    f8801d14    ....    STRB     r1,[r0,#0xd14]
        0x08003442:    4770        pG      BX       lr
    i.__scatterload_copy
    __scatterload_copy
        0x08003444:    e002        ..      B        0x800344c ; __scatterload_copy + 8
        0x08003446:    c808        ..      LDM      r0!,{r3}
        0x08003448:    1f12        ..      SUBS     r2,r2,#4
        0x0800344a:    c108        ..      STM      r1!,{r3}
        0x0800344c:    2a00        .*      CMP      r2,#0
        0x0800344e:    d1fa        ..      BNE      0x8003446 ; __scatterload_copy + 2
        0x08003450:    4770        pG      BX       lr
    i.__scatterload_null
    __scatterload_null
        0x08003452:    4770        pG      BX       lr
    i.__scatterload_zeroinit
    __scatterload_zeroinit
        0x08003454:    2000        .       MOVS     r0,#0
        0x08003456:    e001        ..      B        0x800345c ; __scatterload_zeroinit + 8
        0x08003458:    c101        ..      STM      r1!,{r0}
        0x0800345a:    1f12        ..      SUBS     r2,r2,#4
        0x0800345c:    2a00        .*      CMP      r2,#0
        0x0800345e:    d1fb        ..      BNE      0x8003458 ; __scatterload_zeroinit + 4
        0x08003460:    4770        pG      BX       lr
        0x08003462:    0000        ..      MOVS     r0,r0
    i._printf_core
    _printf_core
        0x08003464:    e92d4fff    -..O    PUSH     {r0-r11,lr}
        0x08003468:    b08b        ..      SUB      sp,sp,#0x2c
        0x0800346a:    4688        .F      MOV      r8,r1
        0x0800346c:    4605        .F      MOV      r5,r0
        0x0800346e:    2600        .&      MOVS     r6,#0
        0x08003470:    e006        ..      B        0x8003480 ; _printf_core + 28
        0x08003472:    2825        %(      CMP      r0,#0x25
        0x08003474:    d00b        ..      BEQ      0x800348e ; _printf_core + 42
        0x08003476:    e9dd120d    ....    LDRD     r1,r2,[sp,#0x34]
        0x0800347a:    4790        .G      BLX      r2
        0x0800347c:    1c6d        m.      ADDS     r5,r5,#1
        0x0800347e:    1c76        v.      ADDS     r6,r6,#1
        0x08003480:    7828        (x      LDRB     r0,[r5,#0]
        0x08003482:    2800        .(      CMP      r0,#0
        0x08003484:    d1f5        ..      BNE      0x8003472 ; _printf_core + 14
        0x08003486:    b00f        ..      ADD      sp,sp,#0x3c
        0x08003488:    4630        0F      MOV      r0,r6
        0x0800348a:    f000b963    ..c.    B.W      0x8003754 ; _printf_core + 752
        0x0800348e:    2400        .$      MOVS     r4,#0
        0x08003490:    46a1        .F      MOV      r9,r4
        0x08003492:    46a2        .F      MOV      r10,r4
        0x08003494:    2201        ."      MOVS     r2,#1
        0x08003496:    49ae        .I      LDR      r1,[pc,#696] ; [0x8003750] = 0x12809
        0x08003498:    e000        ..      B        0x800349c ; _printf_core + 56
        0x0800349a:    4304        .C      ORRS     r4,r4,r0
        0x0800349c:    f8153f01    ...?    LDRB     r3,[r5,#1]!
        0x080034a0:    3b20         ;      SUBS     r3,r3,#0x20
        0x080034a2:    fa02f003    ....    LSL      r0,r2,r3
        0x080034a6:    4208        .B      TST      r0,r1
        0x080034a8:    d1f7        ..      BNE      0x800349a ; _printf_core + 54
        0x080034aa:    7828        (x      LDRB     r0,[r5,#0]
        0x080034ac:    282a        *(      CMP      r0,#0x2a
        0x080034ae:    d010        ..      BEQ      0x80034d2 ; _printf_core + 110
        0x080034b0:    f06f022f    o./.    MVN      r2,#0x2f
        0x080034b4:    7828        (x      LDRB     r0,[r5,#0]
        0x080034b6:    f1a00130    ..0.    SUB      r1,r0,#0x30
        0x080034ba:    2909        .)      CMP      r1,#9
        0x080034bc:    d815        ..      BHI      0x80034ea ; _printf_core + 134
        0x080034be:    eb090189    ....    ADD      r1,r9,r9,LSL #2
        0x080034c2:    eb020141    ..A.    ADD      r1,r2,r1,LSL #1
        0x080034c6:    f0440402    D...    ORR      r4,r4,#2
        0x080034ca:    eb000901    ....    ADD      r9,r0,r1
        0x080034ce:    1c6d        m.      ADDS     r5,r5,#1
        0x080034d0:    e7f0        ..      B        0x80034b4 ; _printf_core + 80
        0x080034d2:    f8581b04    X...    LDR      r1,[r8],#4
        0x080034d6:    ea5f0901    _...    MOVS     r9,r1
        0x080034da:    d503        ..      BPL      0x80034e4 ; _printf_core + 128
        0x080034dc:    f4445400    D..T    ORR      r4,r4,#0x2000
        0x080034e0:    f1c90900    ....    RSB      r9,r9,#0
        0x080034e4:    f0440402    D...    ORR      r4,r4,#2
        0x080034e8:    1c6d        m.      ADDS     r5,r5,#1
        0x080034ea:    7828        (x      LDRB     r0,[r5,#0]
        0x080034ec:    282e        .(      CMP      r0,#0x2e
        0x080034ee:    d117        ..      BNE      0x8003520 ; _printf_core + 188
        0x080034f0:    f8150f01    ....    LDRB     r0,[r5,#1]!
        0x080034f4:    f0440404    D...    ORR      r4,r4,#4
        0x080034f8:    282a        *(      CMP      r0,#0x2a
        0x080034fa:    d00e        ..      BEQ      0x800351a ; _printf_core + 182
        0x080034fc:    f06f022f    o./.    MVN      r2,#0x2f
        0x08003500:    7828        (x      LDRB     r0,[r5,#0]
        0x08003502:    f1a00130    ..0.    SUB      r1,r0,#0x30
        0x08003506:    2909        .)      CMP      r1,#9
        0x08003508:    d80a        ..      BHI      0x8003520 ; _printf_core + 188
        0x0800350a:    eb0a018a    ....    ADD      r1,r10,r10,LSL #2
        0x0800350e:    eb020141    ..A.    ADD      r1,r2,r1,LSL #1
        0x08003512:    eb000a01    ....    ADD      r10,r0,r1
        0x08003516:    1c6d        m.      ADDS     r5,r5,#1
        0x08003518:    e7f2        ..      B        0x8003500 ; _printf_core + 156
        0x0800351a:    f858ab04    X...    LDR      r10,[r8],#4
        0x0800351e:    1c6d        m.      ADDS     r5,r5,#1
        0x08003520:    7828        (x      LDRB     r0,[r5,#0]
        0x08003522:    286c        l(      CMP      r0,#0x6c
        0x08003524:    d00f        ..      BEQ      0x8003546 ; _printf_core + 226
        0x08003526:    dc06        ..      BGT      0x8003536 ; _printf_core + 210
        0x08003528:    284c        L(      CMP      r0,#0x4c
        0x0800352a:    d017        ..      BEQ      0x800355c ; _printf_core + 248
        0x0800352c:    2868        h(      CMP      r0,#0x68
        0x0800352e:    d00d        ..      BEQ      0x800354c ; _printf_core + 232
        0x08003530:    286a        j(      CMP      r0,#0x6a
        0x08003532:    d114        ..      BNE      0x800355e ; _printf_core + 250
        0x08003534:    e004        ..      B        0x8003540 ; _printf_core + 220
        0x08003536:    2874        t(      CMP      r0,#0x74
        0x08003538:    d010        ..      BEQ      0x800355c ; _printf_core + 248
        0x0800353a:    287a        z(      CMP      r0,#0x7a
        0x0800353c:    d10f        ..      BNE      0x800355e ; _printf_core + 250
        0x0800353e:    e00d        ..      B        0x800355c ; _printf_core + 248
        0x08003540:    f4441400    D...    ORR      r4,r4,#0x200000
        0x08003544:    e00a        ..      B        0x800355c ; _printf_core + 248
        0x08003546:    f4441480    D...    ORR      r4,r4,#0x100000
        0x0800354a:    e001        ..      B        0x8003550 ; _printf_core + 236
        0x0800354c:    f4441440    D.@.    ORR      r4,r4,#0x300000
        0x08003550:    7869        ix      LDRB     r1,[r5,#1]
        0x08003552:    4281        .B      CMP      r1,r0
        0x08003554:    d102        ..      BNE      0x800355c ; _printf_core + 248
        0x08003556:    f5041480    ....    ADD      r4,r4,#0x100000
        0x0800355a:    1c6d        m.      ADDS     r5,r5,#1
        0x0800355c:    1c6d        m.      ADDS     r5,r5,#1
        0x0800355e:    7828        (x      LDRB     r0,[r5,#0]
        0x08003560:    2869        i(      CMP      r0,#0x69
        0x08003562:    d065        e.      BEQ      0x8003630 ; _printf_core + 460
        0x08003564:    dc06        ..      BGT      0x8003574 ; _printf_core + 272
        0x08003566:    2800        .(      CMP      r0,#0
        0x08003568:    d08d        ..      BEQ      0x8003486 ; _printf_core + 34
        0x0800356a:    2863        c(      CMP      r0,#0x63
        0x0800356c:    d027        '.      BEQ      0x80035be ; _printf_core + 346
        0x0800356e:    2864        d(      CMP      r0,#0x64
        0x08003570:    d106        ..      BNE      0x8003580 ; _printf_core + 284
        0x08003572:    e05d        ].      B        0x8003630 ; _printf_core + 460
        0x08003574:    286e        n(      CMP      r0,#0x6e
        0x08003576:    d008        ..      BEQ      0x800358a ; _printf_core + 294
        0x08003578:    2873        s(      CMP      r0,#0x73
        0x0800357a:    d02a        *.      BEQ      0x80035d2 ; _printf_core + 366
        0x0800357c:    2875        u(      CMP      r0,#0x75
        0x0800357e:    d077        w.      BEQ      0x8003670 ; _printf_core + 524
        0x08003580:    e9dd120d    ....    LDRD     r1,r2,[sp,#0x34]
        0x08003584:    4790        .G      BLX      r2
        0x08003586:    1c76        v.      ADDS     r6,r6,#1
        0x08003588:    e0e0        ..      B        0x800374c ; _printf_core + 744
        0x0800358a:    f3c45002    ...P    UBFX     r0,r4,#20,#3
        0x0800358e:    2802        .(      CMP      r0,#2
        0x08003590:    d009        ..      BEQ      0x80035a6 ; _printf_core + 322
        0x08003592:    2803        .(      CMP      r0,#3
        0x08003594:    d00d        ..      BEQ      0x80035b2 ; _printf_core + 334
        0x08003596:    f8d81000    ....    LDR      r1,[r8,#0]
        0x0800359a:    2804        .(      CMP      r0,#4
        0x0800359c:    d00d        ..      BEQ      0x80035ba ; _printf_core + 342
        0x0800359e:    600e        .`      STR      r6,[r1,#0]
        0x080035a0:    f1080804    ....    ADD      r8,r8,#4
        0x080035a4:    e0d2        ..      B        0x800374c ; _printf_core + 744
        0x080035a6:    f8d81000    ....    LDR      r1,[r8,#0]
        0x080035aa:    17f2        ..      ASRS     r2,r6,#31
        0x080035ac:    e9c16200    ...b    STRD     r6,r2,[r1,#0]
        0x080035b0:    e7f6        ..      B        0x80035a0 ; _printf_core + 316
        0x080035b2:    f8d81000    ....    LDR      r1,[r8,#0]
        0x080035b6:    800e        ..      STRH     r6,[r1,#0]
        0x080035b8:    e7f2        ..      B        0x80035a0 ; _printf_core + 316
        0x080035ba:    700e        .p      STRB     r6,[r1,#0]
        0x080035bc:    e7f0        ..      B        0x80035a0 ; _printf_core + 316
        0x080035be:    f8181b04    ....    LDRB     r1,[r8],#4
        0x080035c2:    f88d1000    ....    STRB     r1,[sp,#0]
        0x080035c6:    2000        .       MOVS     r0,#0
        0x080035c8:    f88d0001    ....    STRB     r0,[sp,#1]
        0x080035cc:    46eb        .F      MOV      r11,sp
        0x080035ce:    2001        .       MOVS     r0,#1
        0x080035d0:    e003        ..      B        0x80035da ; _printf_core + 374
        0x080035d2:    f858bb04    X...    LDR      r11,[r8],#4
        0x080035d6:    f04f30ff    O..0    MOV      r0,#0xffffffff
        0x080035da:    0761        a.      LSLS     r1,r4,#29
        0x080035dc:    f04f0700    O...    MOV      r7,#0
        0x080035e0:    d401        ..      BMI      0x80035e6 ; _printf_core + 386
        0x080035e2:    e00a        ..      B        0x80035fa ; _printf_core + 406
        0x080035e4:    1c7f        ..      ADDS     r7,r7,#1
        0x080035e6:    4557        WE      CMP      r7,r10
        0x080035e8:    da0d        ..      BGE      0x8003606 ; _printf_core + 418
        0x080035ea:    4287        .B      CMP      r7,r0
        0x080035ec:    dbfa        ..      BLT      0x80035e4 ; _printf_core + 384
        0x080035ee:    f81b1007    ....    LDRB     r1,[r11,r7]
        0x080035f2:    2900        .)      CMP      r1,#0
        0x080035f4:    d1f6        ..      BNE      0x80035e4 ; _printf_core + 384
        0x080035f6:    e006        ..      B        0x8003606 ; _printf_core + 418
        0x080035f8:    1c7f        ..      ADDS     r7,r7,#1
        0x080035fa:    4287        .B      CMP      r7,r0
        0x080035fc:    dbfc        ..      BLT      0x80035f8 ; _printf_core + 404
        0x080035fe:    f81b1007    ....    LDRB     r1,[r11,r7]
        0x08003602:    2900        .)      CMP      r1,#0
        0x08003604:    d1f8        ..      BNE      0x80035f8 ; _printf_core + 404
        0x08003606:    e9dd230d    ...#    LDRD     r2,r3,[sp,#0x34]
        0x0800360a:    eba90007    ....    SUB      r0,r9,r7
        0x0800360e:    4681        .F      MOV      r9,r0
        0x08003610:    4621        !F      MOV      r1,r4
        0x08003612:    f000f8b4    ....    BL       _printf_pre_padding ; 0x800377e
        0x08003616:    4430        0D      ADD      r0,r0,r6
        0x08003618:    19c6        ..      ADDS     r6,r0,r7
        0x0800361a:    e004        ..      B        0x8003626 ; _printf_core + 450
        0x0800361c:    e9dd120d    ....    LDRD     r1,r2,[sp,#0x34]
        0x08003620:    f81b0b01    ....    LDRB     r0,[r11],#1
        0x08003624:    4790        .G      BLX      r2
        0x08003626:    1e7f        ..      SUBS     r7,r7,#1
        0x08003628:    d2f8        ..      BCS      0x800361c ; _printf_core + 440
        0x0800362a:    4621        !F      MOV      r1,r4
        0x0800362c:    4648        HF      MOV      r0,r9
        0x0800362e:    e088        ..      B        0x8003742 ; _printf_core + 734
        0x08003630:    f8580b04    X...    LDR      r0,[r8],#4
        0x08003634:    f3c45102    ...Q    UBFX     r1,r4,#20,#3
        0x08003638:    f04f0b0a    O...    MOV      r11,#0xa
        0x0800363c:    2903        .)      CMP      r1,#3
        0x0800363e:    d100        ..      BNE      0x8003642 ; _printf_core + 478
        0x08003640:    b200        ..      SXTH     r0,r0
        0x08003642:    2904        .)      CMP      r1,#4
        0x08003644:    d100        ..      BNE      0x8003648 ; _printf_core + 484
        0x08003646:    b240        @.      SXTB     r0,r0
        0x08003648:    2800        .(      CMP      r0,#0
        0x0800364a:    da02        ..      BGE      0x8003652 ; _printf_core + 494
        0x0800364c:    4240        @B      RSBS     r0,r0,#0
        0x0800364e:    212d        -!      MOVS     r1,#0x2d
        0x08003650:    e002        ..      B        0x8003658 ; _printf_core + 500
        0x08003652:    0521        !.      LSLS     r1,r4,#20
        0x08003654:    d505        ..      BPL      0x8003662 ; _printf_core + 510
        0x08003656:    212b        +!      MOVS     r1,#0x2b
        0x08003658:    f88d1024    ..$.    STRB     r1,[sp,#0x24]
        0x0800365c:    2101        .!      MOVS     r1,#1
        0x0800365e:    e004        ..      B        0x800366a ; _printf_core + 518
        0x08003660:    e006        ..      B        0x8003670 ; _printf_core + 524
        0x08003662:    07e1        ..      LSLS     r1,r4,#31
        0x08003664:    d010        ..      BEQ      0x8003688 ; _printf_core + 548
        0x08003666:    2120         !      MOVS     r1,#0x20
        0x08003668:    e7f6        ..      B        0x8003658 ; _printf_core + 500
        0x0800366a:    af08        ..      ADD      r7,sp,#0x20
        0x0800366c:    9108        ..      STR      r1,[sp,#0x20]
        0x0800366e:    e013        ..      B        0x8003698 ; _printf_core + 564
        0x08003670:    f8580b04    X...    LDR      r0,[r8],#4
        0x08003674:    f3c45102    ...Q    UBFX     r1,r4,#20,#3
        0x08003678:    f04f0b0a    O...    MOV      r11,#0xa
        0x0800367c:    2903        .)      CMP      r1,#3
        0x0800367e:    d100        ..      BNE      0x8003682 ; _printf_core + 542
        0x08003680:    b280        ..      UXTH     r0,r0
        0x08003682:    2904        .)      CMP      r1,#4
        0x08003684:    d100        ..      BNE      0x8003688 ; _printf_core + 548
        0x08003686:    b2c0        ..      UXTB     r0,r0
        0x08003688:    2100        .!      MOVS     r1,#0
        0x0800368a:    e7ee        ..      B        0x800366a ; _printf_core + 518
        0x0800368c:    4659        YF      MOV      r1,r11
        0x0800368e:    f7fcfde1    ....    BL       __aeabi_uidiv ; 0x8000254
        0x08003692:    3130        01      ADDS     r1,r1,#0x30
        0x08003694:    f8071d01    ....    STRB     r1,[r7,#-1]!
        0x08003698:    2800        .(      CMP      r0,#0
        0x0800369a:    d1f7        ..      BNE      0x800368c ; _printf_core + 552
        0x0800369c:    ebad0007    ....    SUB      r0,sp,r7
        0x080036a0:    f1000b20    .. .    ADD      r11,r0,#0x20
        0x080036a4:    0760        `.      LSLS     r0,r4,#29
        0x080036a6:    d502        ..      BPL      0x80036ae ; _printf_core + 586
        0x080036a8:    f4243480    $..4    BIC      r4,r4,#0x10000
        0x080036ac:    e001        ..      B        0x80036b2 ; _printf_core + 590
        0x080036ae:    f04f0a01    O...    MOV      r10,#1
        0x080036b2:    45da        .E      CMP      r10,r11
        0x080036b4:    dd02        ..      BLE      0x80036bc ; _printf_core + 600
        0x080036b6:    ebaa000b    ....    SUB      r0,r10,r11
        0x080036ba:    e000        ..      B        0x80036be ; _printf_core + 602
        0x080036bc:    2000        .       MOVS     r0,#0
        0x080036be:    4682        .F      MOV      r10,r0
        0x080036c0:    eb00010b    ....    ADD      r1,r0,r11
        0x080036c4:    9808        ..      LDR      r0,[sp,#0x20]
        0x080036c6:    4401        .D      ADD      r1,r1,r0
        0x080036c8:    eba90001    ....    SUB      r0,r9,r1
        0x080036cc:    900a        ..      STR      r0,[sp,#0x28]
        0x080036ce:    03e0        ..      LSLS     r0,r4,#15
        0x080036d0:    d406        ..      BMI      0x80036e0 ; _printf_core + 636
        0x080036d2:    e9dd230d    ...#    LDRD     r2,r3,[sp,#0x34]
        0x080036d6:    4621        !F      MOV      r1,r4
        0x080036d8:    980a        ..      LDR      r0,[sp,#0x28]
        0x080036da:    f000f850    ..P.    BL       _printf_pre_padding ; 0x800377e
        0x080036de:    4406        .D      ADD      r6,r6,r0
        0x080036e0:    f04f0900    O...    MOV      r9,#0
        0x080036e4:    e008        ..      B        0x80036f8 ; _printf_core + 660
        0x080036e6:    a909        ..      ADD      r1,sp,#0x24
        0x080036e8:    f8110009    ....    LDRB     r0,[r1,r9]
        0x080036ec:    e9dd120d    ....    LDRD     r1,r2,[sp,#0x34]
        0x080036f0:    4790        .G      BLX      r2
        0x080036f2:    f1090901    ....    ADD      r9,r9,#1
        0x080036f6:    1c76        v.      ADDS     r6,r6,#1
        0x080036f8:    9908        ..      LDR      r1,[sp,#0x20]
        0x080036fa:    4589        .E      CMP      r9,r1
        0x080036fc:    dbf3        ..      BLT      0x80036e6 ; _printf_core + 642
        0x080036fe:    03e0        ..      LSLS     r0,r4,#15
        0x08003700:    d50c        ..      BPL      0x800371c ; _printf_core + 696
        0x08003702:    e9dd230d    ...#    LDRD     r2,r3,[sp,#0x34]
        0x08003706:    4621        !F      MOV      r1,r4
        0x08003708:    980a        ..      LDR      r0,[sp,#0x28]
        0x0800370a:    f000f838    ..8.    BL       _printf_pre_padding ; 0x800377e
        0x0800370e:    4406        .D      ADD      r6,r6,r0
        0x08003710:    e004        ..      B        0x800371c ; _printf_core + 696
        0x08003712:    e9dd120d    ....    LDRD     r1,r2,[sp,#0x34]
        0x08003716:    2030        0       MOVS     r0,#0x30
        0x08003718:    4790        .G      BLX      r2
        0x0800371a:    1c76        v.      ADDS     r6,r6,#1
        0x0800371c:    f1ba0100    ....    SUBS     r1,r10,#0
        0x08003720:    f1aa0a01    ....    SUB      r10,r10,#1
        0x08003724:    dcf5        ..      BGT      0x8003712 ; _printf_core + 686
        0x08003726:    e005        ..      B        0x8003734 ; _printf_core + 720
        0x08003728:    e9dd120d    ....    LDRD     r1,r2,[sp,#0x34]
        0x0800372c:    f8170b01    ....    LDRB     r0,[r7],#1
        0x08003730:    4790        .G      BLX      r2
        0x08003732:    1c76        v.      ADDS     r6,r6,#1
        0x08003734:    f1bb0100    ....    SUBS     r1,r11,#0
        0x08003738:    f1ab0b01    ....    SUB      r11,r11,#1
        0x0800373c:    dcf4        ..      BGT      0x8003728 ; _printf_core + 708
        0x0800373e:    980a        ..      LDR      r0,[sp,#0x28]
        0x08003740:    4621        !F      MOV      r1,r4
        0x08003742:    e9dd230d    ...#    LDRD     r2,r3,[sp,#0x34]
        0x08003746:    f000f808    ....    BL       _printf_post_padding ; 0x800375a
        0x0800374a:    4406        .D      ADD      r6,r6,r0
        0x0800374c:    1c6d        m.      ADDS     r5,r5,#1
        0x0800374e:    e697        ..      B        0x8003480 ; _printf_core + 28
    $d
        0x08003750:    00012809    .(..    DCD    75785
    $t
        0x08003754:    bc30        0.      POP      {r4,r5}
        0x08003756:    e8bd8fc0    ....    POP      {r6-r11,pc}
    i._printf_post_padding
    _printf_post_padding
        0x0800375a:    e92d41f0    -..A    PUSH     {r4-r8,lr}
        0x0800375e:    4604        .F      MOV      r4,r0
        0x08003760:    2500        .%      MOVS     r5,#0
        0x08003762:    461e        .F      MOV      r6,r3
        0x08003764:    4617        .F      MOV      r7,r2
        0x08003766:    0488        ..      LSLS     r0,r1,#18
        0x08003768:    d404        ..      BMI      0x8003774 ; _printf_post_padding + 26
        0x0800376a:    e005        ..      B        0x8003778 ; _printf_post_padding + 30
        0x0800376c:    4639        9F      MOV      r1,r7
        0x0800376e:    2020                MOVS     r0,#0x20
        0x08003770:    47b0        .G      BLX      r6
        0x08003772:    1c6d        m.      ADDS     r5,r5,#1
        0x08003774:    1e64        d.      SUBS     r4,r4,#1
        0x08003776:    d5f9        ..      BPL      0x800376c ; _printf_post_padding + 18
        0x08003778:    4628        (F      MOV      r0,r5
        0x0800377a:    e8bd81f0    ....    POP      {r4-r8,pc}
    i._printf_pre_padding
    _printf_pre_padding
        0x0800377e:    e92d41f0    -..A    PUSH     {r4-r8,lr}
        0x08003782:    4604        .F      MOV      r4,r0
        0x08003784:    2500        .%      MOVS     r5,#0
        0x08003786:    461e        .F      MOV      r6,r3
        0x08003788:    4690        .F      MOV      r8,r2
        0x0800378a:    03c8        ..      LSLS     r0,r1,#15
        0x0800378c:    d501        ..      BPL      0x8003792 ; _printf_pre_padding + 20
        0x0800378e:    2730        0'      MOVS     r7,#0x30
        0x08003790:    e000        ..      B        0x8003794 ; _printf_pre_padding + 22
        0x08003792:    2720         '      MOVS     r7,#0x20
        0x08003794:    0488        ..      LSLS     r0,r1,#18
        0x08003796:    d504        ..      BPL      0x80037a2 ; _printf_pre_padding + 36
        0x08003798:    e005        ..      B        0x80037a6 ; _printf_pre_padding + 40
        0x0800379a:    4641        AF      MOV      r1,r8
        0x0800379c:    4638        8F      MOV      r0,r7
        0x0800379e:    47b0        .G      BLX      r6
        0x080037a0:    1c6d        m.      ADDS     r5,r5,#1
        0x080037a2:    1e64        d.      SUBS     r4,r4,#1
        0x080037a4:    d5f9        ..      BPL      0x800379a ; _printf_pre_padding + 28
        0x080037a6:    4628        (F      MOV      r0,r5
        0x080037a8:    e8bd81f0    ....    POP      {r4-r8,pc}
    i._sputc
    _sputc
        0x080037ac:    680a        .h      LDR      r2,[r1,#0]
        0x080037ae:    1c53        S.      ADDS     r3,r2,#1
        0x080037b0:    600b        .`      STR      r3,[r1,#0]
        0x080037b2:    7010        .p      STRB     r0,[r2,#0]
        0x080037b4:    4770        pG      BX       lr
        0x080037b6:    0000        ..      MOVS     r0,r0
    i.fputc
    fputc
        0x080037b8:    4904        .I      LDR      r1,[pc,#16] ; [0x80037cc] = 0x4000441c
        0x080037ba:    680a        .h      LDR      r2,[r1,#0]
        0x080037bc:    0652        R.      LSLS     r2,r2,#25
        0x080037be:    d5fc        ..      BPL      0x80037ba ; fputc + 2
        0x080037c0:    4a02        .J      LDR      r2,[pc,#8] ; [0x80037cc] = 0x4000441c
        0x080037c2:    b2c1        ..      UXTB     r1,r0
        0x080037c4:    320c        .2      ADDS     r2,r2,#0xc
        0x080037c6:    8011        ..      STRH     r1,[r2,#0]
        0x080037c8:    4770        pG      BX       lr
    $d
        0x080037ca:    0000        ..      DCW    0
        0x080037cc:    4000441c    .D.@    DCD    1073759260
    $t
    i.main
    main
        0x080037d0:    b50e        ..      PUSH     {r1-r3,lr}
        0x080037d2:    20fe        .       MOVS     r0,#0xfe
        0x080037d4:    f7fff85e    ..^.    BL       LL_FLASH_PageErase ; 0x8002894
        0x080037d8:    f7fdfab0    ....    BL       HAL_Init ; 0x8000d3c
        0x080037dc:    f7fffae0    ....    BL       SystemClock_Config ; 0x8002da0
        0x080037e0:    f7fff8d4    ....    BL       MX_I2C2_Init ; 0x800298c
        0x080037e4:    f7fff922    ..".    BL       MX_USART2_UART_Init ; 0x8002a2c
        0x080037e8:    f7fff8f8    ....    BL       MX_TIM2_Init ; 0x80029dc
        0x080037ec:    2100        .!      MOVS     r1,#0
        0x080037ee:    4817        .H      LDR      r0,[pc,#92] ; [0x800384c] = 0x2000003c
        0x080037f0:    f7fef9a6    ....    BL       HAL_TIM_OC_Start_IT ; 0x8001b40
        0x080037f4:    a016        ..      ADR      r0,{pc}+0x5c ; 0x8003850
        0x080037f6:    f7fffdf1    ....    BL       __0printf$6 ; 0x80033dc
        0x080037fa:    4814        .H      LDR      r0,[pc,#80] ; [0x800384c] = 0x2000003c
        0x080037fc:    6800        .h      LDR      r0,[r0,#0]
        0x080037fe:    6a41        Aj      LDR      r1,[r0,#0x24]
        0x08003800:    4a18        .J      LDR      r2,[pc,#96] ; [0x8003864] = 0xf42400
        0x08003802:    4411        .D      ADD      r1,r1,r2
        0x08003804:    6341        Ac      STR      r1,[r0,#0x34]
        0x08003806:    2200        ."      MOVS     r2,#0
        0x08003808:    2114        .!      MOVS     r1,#0x14
        0x0800380a:    2001        .       MOVS     r0,#1
        0x0800380c:    e88d0007    ....    STM      sp,{r0-r2}
        0x08003810:    2303        .#      MOVS     r3,#3
        0x08003812:    220c        ."      MOVS     r2,#0xc
        0x08003814:    2102        .!      MOVS     r1,#2
        0x08003816:    2014        .       MOVS     r0,#0x14
        0x08003818:    f7fcfd88    ....    BL       DS3231_ModifyTime ; 0x800032c
        0x0800381c:    f7fcfd72    ..r.    BL       DS3231_GetTime ; 0x8000304
        0x08003820:    4811        .H      LDR      r0,[pc,#68] ; [0x8003868] = 0x20000028
        0x08003822:    7c01        .|      LDRB     r1,[r0,#0x10]
        0x08003824:    2900        .)      CMP      r1,#0
        0x08003826:    d0fc        ..      BEQ      0x8003822 ; main + 82
        0x08003828:    f7fcfdf0    ....    BL       DS3231_ShowTime ; 0x800040c
        0x0800382c:    2305        .#      MOVS     r3,#5
        0x0800382e:    2214        ."      MOVS     r2,#0x14
        0x08003830:    2101        .!      MOVS     r1,#1
        0x08003832:    200c        .       MOVS     r0,#0xc
        0x08003834:    f7fcfdac    ....    BL       DS3231_SetAlarm1_Time ; 0x8000390
        0x08003838:    f64030b8    @..0    MOV      r0,#0xbb8
        0x0800383c:    f7fcfee6    ....    BL       HAL_Delay ; 0x800060c
        0x08003840:    f7fffa6e    ..n.    BL       STMFLASH_BankSwitch ; 0x8002d20
        0x08003844:    f7fcfde2    ....    BL       DS3231_ShowTime ; 0x800040c
        0x08003848:    e7fc        ..      B        0x8003844 ; main + 116
    $d
        0x0800384a:    0000        ..      DCW    0
        0x0800384c:    2000003c    <..     DCD    536870972
        0x08003850:    72617453    Star    DCD    1918989395
        0x08003854:    676e6974    ting    DCD    1735289204
        0x08003858:    20707520     up     DCD    544240928
        0x0800385c:    6b6e6162    bank    DCD    1802396002
        0x08003860:    00000a31    1...    DCD    2609
        0x08003864:    00f42400    .$..    DCD    16000000
        0x08003868:    20000028    (..     DCD    536870952
    $d.realdata
    .constdata
    AHBPrescTable
        0x0800386c:    00000000    ....    DCD    0
        0x08003870:    00000000    ....    DCD    0
        0x08003874:    04030201    ....    DCD    67305985
        0x08003878:    09080706    ....    DCD    151521030
    MSIRangeTable
        0x0800387c:    000186a0    ....    DCD    100000
        0x08003880:    00030d40    @...    DCD    200000
        0x08003884:    00061a80    ....    DCD    400000
        0x08003888:    000c3500    .5..    DCD    800000
        0x0800388c:    000f4240    @B..    DCD    1000000
        0x08003890:    001e8480    ....    DCD    2000000
        0x08003894:    003d0900    ..=.    DCD    4000000
        0x08003898:    007a1200    ..z.    DCD    8000000
        0x0800389c:    00f42400    .$..    DCD    16000000
        0x080038a0:    016e3600    .6n.    DCD    24000000
        0x080038a4:    01e84800    .H..    DCD    32000000
        0x080038a8:    02dc6c00    .l..    DCD    48000000
    .constdata
    APBPrescTable
        0x080038ac:    00000000    ....    DCD    0
        0x080038b0:    04030201    ....    DCD    67305985
    Region$$Table$$Base
        0x080038b4:    080038d4    .8..    DCD    134232276
        0x080038b8:    20000000    ...     DCD    536870912
        0x080038bc:    00000014    ....    DCD    20
        0x080038c0:    08003444    D4..    DCD    134231108
        0x080038c4:    080038e8    .8..    DCD    134232296
        0x080038c8:    20000014    ...     DCD    536870932
        0x080038cc:    00000534    4...    DCD    1332
        0x080038d0:    08003454    T4..    DCD    134231124
    Region$$Table$$Limit

** Section #2 'RW_IRAM1' (SHT_PROGBITS) [SHF_ALLOC + SHF_WRITE]
    Size   : 20 bytes (alignment 4)
    Address: 0x20000000


** Section #3 'RW_IRAM1' (SHT_NOBITS) [SHF_ALLOC + SHF_WRITE]
    Size   : 1332 bytes (alignment 8)
    Address: 0x20000014


** Section #4 '.debug_abbrev' (SHT_PROGBITS)
    Size   : 1476 bytes


** Section #5 '.debug_frame' (SHT_PROGBITS)
    Size   : 4600 bytes


** Section #6 '.debug_info' (SHT_PROGBITS)
    Size   : 68612 bytes


** Section #7 '.debug_line' (SHT_PROGBITS)
    Size   : 26728 bytes


** Section #8 '.debug_loc' (SHT_PROGBITS)
    Size   : 10232 bytes


** Section #9 '.debug_macinfo' (SHT_PROGBITS)
    Size   : 838980 bytes


** Section #10 '.debug_pubnames' (SHT_PROGBITS)
    Size   : 3900 bytes


** Section #11 '.symtab' (SHT_SYMTAB)
    Size   : 11184 bytes (alignment 4)
    String table #12 '.strtab'
    Last local symbol no. 438


** Section #12 '.strtab' (SHT_STRTAB)
    Size   : 11352 bytes


** Section #13 '.note' (SHT_NOTE)
    Size   : 28 bytes (alignment 4)


** Section #14 '.comment' (SHT_PROGBITS)
    Size   : 39332 bytes


** Section #15 '.shstrtab' (SHT_STRTAB)
    Size   : 156 bytes


address     size       variable name                            type
0x0800386c  0x10       AHBPrescTable                            array[16] of const uint8_t

address     size       variable name                            type
0x080038ac  0x8        APBPrescTable                            array[8] of const uint8_t

address     size       variable name                            type
0x0800387c  0x30       MSIRangeTable                            array[12] of const uint32_t

address     size       variable name                            type
0x2000000c  0x4        SystemCoreClock                          uint32_t

address     size       variable name                            type
0x20000008  0x4        uwTick                                   volatile uint32_t

address     size       variable name                            type
0x20000004  0x4        uwTickFreq                               uint32_t

address     size       variable name                            type
0x20000000  0x4        uwTickPrio                               uint32_t

address     size       variable name                            type
0x200000fc  0x4c       hi2c2                                    I2C_HandleTypeDef
0x200000fc  0x4        hi2c2.Instance                           pointer to I2C_TypeDef
0x20000100  0x20       hi2c2.Init                               I2C_InitTypeDef
0x20000100  0x4        hi2c2.Init.Timing                        uint32_t
0x20000104  0x4        hi2c2.Init.OwnAddress1                   uint32_t
0x20000108  0x4        hi2c2.Init.AddressingMode                uint32_t
0x2000010c  0x4        hi2c2.Init.DualAddressMode               uint32_t
0x20000110  0x4        hi2c2.Init.OwnAddress2                   uint32_t
0x20000114  0x4        hi2c2.Init.OwnAddress2Masks              uint32_t
0x20000118  0x4        hi2c2.Init.GeneralCallMode               uint32_t
0x2000011c  0x4        hi2c2.Init.NoStretchMode                 uint32_t
0x20000120  0x4        hi2c2.pBuffPtr                           pointer to uint8_t
0x20000124  0x2        hi2c2.XferSize                           uint16_t
0x20000126  0x2        hi2c2.XferCount                          volatile uint16_t
0x20000128  0x4        hi2c2.XferOptions                        volatile uint32_t
0x2000012c  0x4        hi2c2.PreviousState                      volatile uint32_t
0x20000130  0x4        hi2c2.XferISR                            pointer to function 
0x20000134  0x4        hi2c2.hdmatx                             pointer to DMA_HandleTypeDef
0x20000138  0x4        hi2c2.hdmarx                             pointer to DMA_HandleTypeDef
0x2000013c  0x1        hi2c2.Lock                               HAL_LockTypeDef
0x2000013d  0x1        hi2c2.State                              volatile HAL_I2C_StateTypeDef
0x2000013e  0x1      * hi2c2.Mode                               volatile HAL_I2C_ModeTypeDef
0x20000140  0x4        hi2c2.ErrorCode                          volatile uint32_t
0x20000144  0x4        hi2c2.AddrEventCount                     volatile uint32_t

address     size       variable name                            type
0x2000003c  0x40       htim2                                    TIM_HandleTypeDef
0x2000003c  0x4        htim2.Instance                           pointer to TIM_TypeDef
0x20000040  0x18       htim2.Init                               TIM_Base_InitTypeDef
0x20000040  0x4        htim2.Init.Prescaler                     uint32_t
0x20000044  0x4        htim2.Init.CounterMode                   uint32_t
0x20000048  0x4        htim2.Init.Period                        uint32_t
0x2000004c  0x4        htim2.Init.ClockDivision                 uint32_t
0x20000050  0x4        htim2.Init.RepetitionCounter             uint32_t
0x20000054  0x4        htim2.Init.AutoReloadPreload             uint32_t
0x20000058  0x1      * htim2.Channel                            HAL_TIM_ActiveChannel
0x2000005c  0x1c       htim2.hdma                               array[7] of pointer to DMA_HandleTypeDef
0x20000078  0x1        htim2.Lock                               HAL_LockTypeDef
0x20000079  0x1        htim2.State                              volatile HAL_TIM_StateTypeDef

address     size       variable name                            type
0x2000007c  0x80       huart2                                   UART_HandleTypeDef
0x2000007c  0x4        huart2.Instance                          pointer to USART_TypeDef
0x20000080  0x20       huart2.Init                              UART_InitTypeDef
0x20000080  0x4        huart2.Init.BaudRate                     uint32_t
0x20000084  0x4        huart2.Init.WordLength                   uint32_t
0x20000088  0x4        huart2.Init.StopBits                     uint32_t
0x2000008c  0x4        huart2.Init.Parity                       uint32_t
0x20000090  0x4        huart2.Init.Mode                         uint32_t
0x20000094  0x4        huart2.Init.HwFlowCtl                    uint32_t
0x20000098  0x4        huart2.Init.OverSampling                 uint32_t
0x2000009c  0x4        huart2.Init.OneBitSampling               uint32_t
0x200000a0  0x28       huart2.AdvancedInit                      UART_AdvFeatureInitTypeDef
0x200000a0  0x4        huart2.AdvancedInit.AdvFeatureInit       uint32_t
0x200000a4  0x4        huart2.AdvancedInit.TxPinLevelInvert     uint32_t
0x200000a8  0x4        huart2.AdvancedInit.RxPinLevelInvert     uint32_t
0x200000ac  0x4        huart2.AdvancedInit.DataInvert           uint32_t
0x200000b0  0x4        huart2.AdvancedInit.Swap                 uint32_t
0x200000b4  0x4        huart2.AdvancedInit.OverrunDisable       uint32_t
0x200000b8  0x4        huart2.AdvancedInit.DMADisableonRxError  uint32_t
0x200000bc  0x4        huart2.AdvancedInit.AutoBaudRateEnable   uint32_t
0x200000c0  0x4        huart2.AdvancedInit.AutoBaudRateMode     uint32_t
0x200000c4  0x4        huart2.AdvancedInit.MSBFirst             uint32_t
0x200000c8  0x4        huart2.pTxBuffPtr                        pointer to uint8_t
0x200000cc  0x2        huart2.TxXferSize                        uint16_t
0x200000ce  0x2        huart2.TxXferCount                       volatile uint16_t
0x200000d0  0x4        huart2.pRxBuffPtr                        pointer to uint8_t
0x200000d4  0x2        huart2.RxXferSize                        uint16_t
0x200000d6  0x2        huart2.RxXferCount                       volatile uint16_t
0x200000d8  0x2      * huart2.Mask                              uint16_t
0x200000dc  0x4        huart2.RxISR                             pointer to function 
0x200000e0  0x4        huart2.TxISR                             pointer to function 
0x200000e4  0x4        huart2.hdmatx                            pointer to DMA_HandleTypeDef
0x200000e8  0x4        huart2.hdmarx                            pointer to DMA_HandleTypeDef
0x200000ec  0x1      * huart2.Lock                              HAL_LockTypeDef
0x200000f0  0x4        huart2.gState                            volatile HAL_UART_StateTypeDef
0x200000f4  0x4        huart2.RxState                           volatile HAL_UART_StateTypeDef
0x200000f8  0x4        huart2.ErrorCode                         volatile uint32_t

address     size       variable name                            type
0x20000028  0x14       DS3231                                   DS3231_TypeDef
0x20000028  0x1        DS3231.Year                              uint8_t
0x20000029  0x1        DS3231.Month                             uint8_t
0x2000002a  0x1        DS3231.Day                               uint8_t
0x2000002b  0x1        DS3231.Date                              uint8_t
0x2000002c  0x1        DS3231.Hour                              uint8_t
0x2000002d  0x1        DS3231.Minute                            uint8_t
0x2000002e  0x1        DS3231.Second                            uint8_t
0x2000002f  0x1        DS3231.TempMSB                           uint8_t
0x20000030  0x1        DS3231.TempLSB                           uint8_t
0x20000031  0x1        DS3231.Control                           uint8_t
0x20000032  0x1      * DS3231.Status                            uint8_t
0x20000034  0x4        DS3231.Temp                              float
0x20000038  0x1        DS3231.flag                              volatile uint8_t
0x20000039  0x1        DS3231.alarm1_flag                       volatile uint8_t

address     size       variable name                            type
0x20000014  0x13       DS3231_Buff                              array[19] of uint8_t

address     size       variable name                            type
0x00000000  0x13       DS3231_memaddr                           const DS3231_Reg
0x00000000  0x1        DS3231_memaddr.sec                       uint8_t
0x00000001  0x1        DS3231_memaddr.min                       uint8_t
0x00000002  0x1        DS3231_memaddr.hour                      uint8_t
0x00000003  0x1        DS3231_memaddr.day                       uint8_t
0x00000004  0x1        DS3231_memaddr.date                      uint8_t
0x00000005  0x1        DS3231_memaddr.month                     uint8_t
0x00000006  0x1        DS3231_memaddr.year                      uint8_t
0x00000007  0x1        DS3231_memaddr.alarm1_sec                uint8_t
0x00000008  0x1        DS3231_memaddr.alarm1_min                uint8_t
0x00000009  0x1        DS3231_memaddr.alarm1_hour               uint8_t
0x0000000a  0x1        DS3231_memaddr.alarm1_dydt               uint8_t
0x0000000b  0x1        DS3231_memaddr.alarm2_min                uint8_t
0x0000000c  0x1        DS3231_memaddr.alarm2_hour               uint8_t
0x0000000d  0x1        DS3231_memaddr.alarm2_dydt               uint8_t
0x0000000e  0x1        DS3231_memaddr.control                   uint8_t
0x0000000f  0x1        DS3231_memaddr.status                    uint8_t
0x00000010  0x1        DS3231_memaddr.offset                    uint8_t
0x00000011  0x1        DS3231_memaddr.temp_m                    uint8_t
0x00000012  0x1        DS3231_memaddr.temp_l                    uint8_t

